;--------------------------------------------------------
; File Created by SDCC : free open source ISO C Compiler 
; Version 4.2.2 #13350 (Linux)
;--------------------------------------------------------
	.module main
	.optsdcc -msm83
	
;--------------------------------------------------------
; Public variables in this module
;--------------------------------------------------------
	.globl _main
	.globl _StartGame
	.globl _RunGame
	.globl _GameOverScene
	.globl _BattleScene
	.globl _MapScene
	.globl _MenuScene
	.globl _SplashScene
	.globl _checkInput
	.globl _gbt_update
	.globl _gbt_loop
	.globl _gbt_play
	.globl _fadeout
	.globl _fadein
	.globl _printf
	.globl _set_bkg_tiles
	.globl _set_bkg_data
	.globl _wait_vbl_done
	.globl _set_interrupts
	.globl _waitpad
	.globl _joypad
	.globl _delay
	.globl _c
	.globl _j
	.globl _i
	.globl _h
	.globl _lastspriteid
	.globl _y
	.globl _x
	.globl _GardenMap
	.globl _GardenSprites
	.globl _RabbitMap
	.globl _RabbitSprites
	.globl _BackgroundData
	.globl _FontOG
	.globl _font8x8_basic
	.globl _player
;--------------------------------------------------------
; special function registers
;--------------------------------------------------------
;--------------------------------------------------------
; ram data
;--------------------------------------------------------
	.area _DATA
_x::
	.ds 1
_y::
	.ds 1
_lastspriteid::
	.ds 1
_h::
	.ds 1
_i::
	.ds 1
_j::
	.ds 1
_c::
	.ds 1
;--------------------------------------------------------
; ram data
;--------------------------------------------------------
	.area _INITIALIZED
;--------------------------------------------------------
; absolute external ram data
;--------------------------------------------------------
	.area _DABS (ABS)
;--------------------------------------------------------
; global & static initialisations
;--------------------------------------------------------
	.area _HOME
	.area _GSINIT
	.area _GSFINAL
	.area _GSINIT
;--------------------------------------------------------
; Home
;--------------------------------------------------------
	.area _HOME
	.area _HOME
;--------------------------------------------------------
; code
;--------------------------------------------------------
	.area _CODE
;background.c:3: void fadein(){
;	---------------------------------
; Function fadein
; ---------------------------------
_fadein::
;background.c:4: wait_vbl_done();
	call	_wait_vbl_done
;background.c:7: for(i=1; i != 4; i++){
	ld	hl, #_i
	ld	(hl), #0x01
00106$:
;background.c:8: switch(i){
	ld	a, (#_i)
	dec	a
	jr	Z, 00101$
	ld	a, (#_i)
	sub	a, #0x02
	jr	Z, 00102$
	ld	a, (#_i)
	sub	a, #0x03
	jr	Z, 00103$
	jr	00104$
;background.c:9: case 1:
00101$:
;background.c:10: BGP_REG = 0xFE;
	ld	a, #0xfe
	ldh	(_BGP_REG + 0), a
;background.c:11: break;
	jr	00104$
;background.c:12: case 2:
00102$:
;background.c:13: BGP_REG = 0xF9;
	ld	a, #0xf9
	ldh	(_BGP_REG + 0), a
;background.c:14: break;
	jr	00104$
;background.c:15: case 3:
00103$:
;background.c:16: BGP_REG = 0xE4;
	ld	a, #0xe4
	ldh	(_BGP_REG + 0), a
;background.c:18: }
00104$:
;background.c:19: delay(100);
	ld	de, #0x0064
	call	_delay
;background.c:7: for(i=1; i != 4; i++){
	ld	hl, #_i
	inc	(hl)
	ld	a, (hl)
	sub	a, #0x04
	jr	NZ, 00106$
;background.c:21: }
	ret
_player:
	.db #0x00	; 0
	.db #0x00	; 0
	.db #0x00	; 0
	.db #0x00	; 0
	.db #0x01	; 1
	.db #0x01	; 1
	.db #0x01	; 1
	.db #0x01	; 1
	.db #0x03	; 3
	.db #0x00	; 0
	.db #0x06	; 6
	.db #0x01	; 1
	.db #0x06	; 6
	.db #0x03	; 3
	.db #0x07	; 7
	.db #0x03	; 3
	.db #0x0f	; 15
	.db #0x03	; 3
	.db #0x01	; 1
	.db #0x0f	; 15
	.db #0x1b	; 27
	.db #0x00	; 0
	.db #0x17	; 23
	.db #0x06	; 6
	.db #0x07	; 7
	.db #0x06	; 6
	.db #0x00	; 0
	.db #0x03	; 3
	.db #0x02	; 2
	.db #0x00	; 0
	.db #0x04	; 4
	.db #0x00	; 0
	.db #0x00	; 0
	.db #0x00	; 0
	.db #0x00	; 0
	.db #0x00	; 0
	.db #0x80	; 128
	.db #0x80	; 128
	.db #0x80	; 128
	.db #0x80	; 128
	.db #0xc0	; 192
	.db #0x00	; 0
	.db #0xe0	; 224
	.db #0x00	; 0
	.db #0xe0	; 224
	.db #0x80	; 128
	.db #0xf0	; 240
	.db #0x80	; 128
	.db #0xb0	; 176
	.db #0x88	; 136
	.db #0x08	; 8
	.db #0xd0	; 208
	.db #0xc8	; 200
	.db #0x40	; 64
	.db #0xe8	; 232
	.db #0xe0	; 224
	.db #0x60	; 96
	.db #0x60	; 96
	.db #0x20	; 32
	.db #0x30	; 48	'0'
	.db #0x10	; 16
	.db #0x20	; 32
	.db #0x10	; 16
	.db #0x00	; 0
	.db #0x00	; 0
	.db #0x00	; 0
	.db #0x00	; 0
	.db #0x00	; 0
	.db #0x00	; 0
	.db #0x00	; 0
	.db #0x00	; 0
	.db #0x00	; 0
	.db #0x00	; 0
	.db #0x00	; 0
	.db #0x00	; 0
	.db #0x00	; 0
	.db #0x00	; 0
	.db #0x00	; 0
	.db #0x00	; 0
	.db #0x00	; 0
	.db #0x00	; 0
	.db #0x00	; 0
	.db #0x00	; 0
	.db #0x00	; 0
	.db #0x00	; 0
	.db #0x00	; 0
	.db #0x00	; 0
	.db #0x00	; 0
	.db #0x00	; 0
	.db #0x00	; 0
	.db #0x00	; 0
	.db #0x00	; 0
	.db #0x00	; 0
	.db #0x00	; 0
	.db #0x00	; 0
	.db #0x00	; 0
	.db #0x00	; 0
	.db #0x00	; 0
	.db #0x00	; 0
	.db #0x00	; 0
	.db #0x00	; 0
	.db #0x00	; 0
	.db #0x00	; 0
	.db #0x00	; 0
	.db #0x00	; 0
	.db #0x00	; 0
	.db #0x00	; 0
	.db #0x00	; 0
	.db #0x00	; 0
	.db #0x00	; 0
	.db #0x00	; 0
	.db #0x00	; 0
	.db #0x00	; 0
	.db #0x00	; 0
	.db #0x00	; 0
	.db #0x00	; 0
	.db #0x00	; 0
	.db #0x00	; 0
	.db #0x00	; 0
	.db #0x00	; 0
	.db #0x00	; 0
	.db #0x00	; 0
	.db #0x00	; 0
	.db #0x00	; 0
	.db #0x00	; 0
	.db #0x00	; 0
	.db #0x00	; 0
	.db #0x00	; 0
_font8x8_basic:
	.db #0x00	; 0
	.db #0x00	; 0
	.db #0x00	; 0
	.db #0x00	; 0
	.db #0x00	; 0
	.db #0x00	; 0
	.db #0x00	; 0
	.db #0x00	; 0
	.db #0x00	; 0
	.db #0x00	; 0
	.db #0x00	; 0
	.db #0x00	; 0
	.db #0x00	; 0
	.db #0x00	; 0
	.db #0x00	; 0
	.db #0x00	; 0
	.db #0x00	; 0
	.db #0x00	; 0
	.db #0x00	; 0
	.db #0x00	; 0
	.db #0x00	; 0
	.db #0x00	; 0
	.db #0x00	; 0
	.db #0x00	; 0
	.db #0x00	; 0
	.db #0x00	; 0
	.db #0x00	; 0
	.db #0x00	; 0
	.db #0x00	; 0
	.db #0x00	; 0
	.db #0x00	; 0
	.db #0x00	; 0
	.db #0x00	; 0
	.db #0x00	; 0
	.db #0x00	; 0
	.db #0x00	; 0
	.db #0x00	; 0
	.db #0x00	; 0
	.db #0x00	; 0
	.db #0x00	; 0
	.db #0x00	; 0
	.db #0x00	; 0
	.db #0x00	; 0
	.db #0x00	; 0
	.db #0x00	; 0
	.db #0x00	; 0
	.db #0x00	; 0
	.db #0x00	; 0
	.db #0x00	; 0
	.db #0x00	; 0
	.db #0x00	; 0
	.db #0x00	; 0
	.db #0x00	; 0
	.db #0x00	; 0
	.db #0x00	; 0
	.db #0x00	; 0
	.db #0x00	; 0
	.db #0x00	; 0
	.db #0x00	; 0
	.db #0x00	; 0
	.db #0x00	; 0
	.db #0x00	; 0
	.db #0x00	; 0
	.db #0x00	; 0
	.db #0x00	; 0
	.db #0x00	; 0
	.db #0x00	; 0
	.db #0x00	; 0
	.db #0x00	; 0
	.db #0x00	; 0
	.db #0x00	; 0
	.db #0x00	; 0
	.db #0x00	; 0
	.db #0x00	; 0
	.db #0x00	; 0
	.db #0x00	; 0
	.db #0x00	; 0
	.db #0x00	; 0
	.db #0x00	; 0
	.db #0x00	; 0
	.db #0x00	; 0
	.db #0x00	; 0
	.db #0x00	; 0
	.db #0x00	; 0
	.db #0x00	; 0
	.db #0x00	; 0
	.db #0x00	; 0
	.db #0x00	; 0
	.db #0x00	; 0
	.db #0x00	; 0
	.db #0x00	; 0
	.db #0x00	; 0
	.db #0x00	; 0
	.db #0x00	; 0
	.db #0x00	; 0
	.db #0x00	; 0
	.db #0x00	; 0
	.db #0x00	; 0
	.db #0x00	; 0
	.db #0x00	; 0
	.db #0x00	; 0
	.db #0x00	; 0
	.db #0x00	; 0
	.db #0x00	; 0
	.db #0x00	; 0
	.db #0x00	; 0
	.db #0x00	; 0
	.db #0x00	; 0
	.db #0x00	; 0
	.db #0x00	; 0
	.db #0x00	; 0
	.db #0x00	; 0
	.db #0x00	; 0
	.db #0x00	; 0
	.db #0x00	; 0
	.db #0x00	; 0
	.db #0x00	; 0
	.db #0x00	; 0
	.db #0x00	; 0
	.db #0x00	; 0
	.db #0x00	; 0
	.db #0x00	; 0
	.db #0x00	; 0
	.db #0x00	; 0
	.db #0x00	; 0
	.db #0x00	; 0
	.db #0x00	; 0
	.db #0x00	; 0
	.db #0x00	; 0
	.db #0x00	; 0
	.db #0x00	; 0
	.db #0x00	; 0
	.db #0x00	; 0
	.db #0x00	; 0
	.db #0x00	; 0
	.db #0x00	; 0
	.db #0x00	; 0
	.db #0x00	; 0
	.db #0x00	; 0
	.db #0x00	; 0
	.db #0x00	; 0
	.db #0x00	; 0
	.db #0x00	; 0
	.db #0x00	; 0
	.db #0x00	; 0
	.db #0x00	; 0
	.db #0x00	; 0
	.db #0x00	; 0
	.db #0x00	; 0
	.db #0x00	; 0
	.db #0x00	; 0
	.db #0x00	; 0
	.db #0x00	; 0
	.db #0x00	; 0
	.db #0x00	; 0
	.db #0x00	; 0
	.db #0x00	; 0
	.db #0x00	; 0
	.db #0x00	; 0
	.db #0x00	; 0
	.db #0x00	; 0
	.db #0x00	; 0
	.db #0x00	; 0
	.db #0x00	; 0
	.db #0x00	; 0
	.db #0x00	; 0
	.db #0x00	; 0
	.db #0x00	; 0
	.db #0x00	; 0
	.db #0x00	; 0
	.db #0x00	; 0
	.db #0x00	; 0
	.db #0x00	; 0
	.db #0x00	; 0
	.db #0x00	; 0
	.db #0x00	; 0
	.db #0x00	; 0
	.db #0x00	; 0
	.db #0x00	; 0
	.db #0x00	; 0
	.db #0x00	; 0
	.db #0x00	; 0
	.db #0x00	; 0
	.db #0x00	; 0
	.db #0x00	; 0
	.db #0x00	; 0
	.db #0x00	; 0
	.db #0x00	; 0
	.db #0x00	; 0
	.db #0x00	; 0
	.db #0x00	; 0
	.db #0x00	; 0
	.db #0x00	; 0
	.db #0x00	; 0
	.db #0x00	; 0
	.db #0x00	; 0
	.db #0x00	; 0
	.db #0x00	; 0
	.db #0x00	; 0
	.db #0x00	; 0
	.db #0x00	; 0
	.db #0x00	; 0
	.db #0x00	; 0
	.db #0x00	; 0
	.db #0x00	; 0
	.db #0x00	; 0
	.db #0x00	; 0
	.db #0x00	; 0
	.db #0x00	; 0
	.db #0x00	; 0
	.db #0x00	; 0
	.db #0x00	; 0
	.db #0x00	; 0
	.db #0x00	; 0
	.db #0x00	; 0
	.db #0x00	; 0
	.db #0x00	; 0
	.db #0x00	; 0
	.db #0x00	; 0
	.db #0x00	; 0
	.db #0x00	; 0
	.db #0x00	; 0
	.db #0x00	; 0
	.db #0x00	; 0
	.db #0x00	; 0
	.db #0x00	; 0
	.db #0x00	; 0
	.db #0x00	; 0
	.db #0x00	; 0
	.db #0x00	; 0
	.db #0x00	; 0
	.db #0x00	; 0
	.db #0x00	; 0
	.db #0x00	; 0
	.db #0x00	; 0
	.db #0x00	; 0
	.db #0x00	; 0
	.db #0x00	; 0
	.db #0x00	; 0
	.db #0x00	; 0
	.db #0x00	; 0
	.db #0x00	; 0
	.db #0x00	; 0
	.db #0x00	; 0
	.db #0x00	; 0
	.db #0x00	; 0
	.db #0x00	; 0
	.db #0x00	; 0
	.db #0x00	; 0
	.db #0x00	; 0
	.db #0x00	; 0
	.db #0x00	; 0
	.db #0x00	; 0
	.db #0x00	; 0
	.db #0x00	; 0
	.db #0x00	; 0
	.db #0x00	; 0
	.db #0x00	; 0
	.db #0x00	; 0
	.db #0x00	; 0
	.db #0x00	; 0
	.db #0x00	; 0
	.db #0x00	; 0
	.db #0x00	; 0
	.db #0x18	; 24
	.db #0x3c	; 60
	.db #0x3c	; 60
	.db #0x18	; 24
	.db #0x18	; 24
	.db #0x00	; 0
	.db #0x18	; 24
	.db #0x00	; 0
	.db #0x36	; 54	'6'
	.db #0x36	; 54	'6'
	.db #0x00	; 0
	.db #0x00	; 0
	.db #0x00	; 0
	.db #0x00	; 0
	.db #0x00	; 0
	.db #0x00	; 0
	.db #0x36	; 54	'6'
	.db #0x36	; 54	'6'
	.db #0x7f	; 127
	.db #0x36	; 54	'6'
	.db #0x7f	; 127
	.db #0x36	; 54	'6'
	.db #0x36	; 54	'6'
	.db #0x00	; 0
	.db #0x0c	; 12
	.db #0x3e	; 62
	.db #0x03	; 3
	.db #0x1e	; 30
	.db #0x30	; 48	'0'
	.db #0x1f	; 31
	.db #0x0c	; 12
	.db #0x00	; 0
	.db #0x00	; 0
	.db #0x63	; 99	'c'
	.db #0x33	; 51	'3'
	.db #0x18	; 24
	.db #0x0c	; 12
	.db #0x66	; 102	'f'
	.db #0x63	; 99	'c'
	.db #0x00	; 0
	.db #0x1c	; 28
	.db #0x36	; 54	'6'
	.db #0x1c	; 28
	.db #0x6e	; 110	'n'
	.db #0x3b	; 59
	.db #0x33	; 51	'3'
	.db #0x6e	; 110	'n'
	.db #0x00	; 0
	.db #0x06	; 6
	.db #0x06	; 6
	.db #0x03	; 3
	.db #0x00	; 0
	.db #0x00	; 0
	.db #0x00	; 0
	.db #0x00	; 0
	.db #0x00	; 0
	.db #0x18	; 24
	.db #0x0c	; 12
	.db #0x06	; 6
	.db #0x06	; 6
	.db #0x06	; 6
	.db #0x0c	; 12
	.db #0x18	; 24
	.db #0x00	; 0
	.db #0x06	; 6
	.db #0x0c	; 12
	.db #0x18	; 24
	.db #0x18	; 24
	.db #0x18	; 24
	.db #0x0c	; 12
	.db #0x06	; 6
	.db #0x00	; 0
	.db #0x00	; 0
	.db #0x66	; 102	'f'
	.db #0x3c	; 60
	.db #0xff	; 255
	.db #0x3c	; 60
	.db #0x66	; 102	'f'
	.db #0x00	; 0
	.db #0x00	; 0
	.db #0x00	; 0
	.db #0x0c	; 12
	.db #0x0c	; 12
	.db #0x3f	; 63
	.db #0x0c	; 12
	.db #0x0c	; 12
	.db #0x00	; 0
	.db #0x00	; 0
	.db #0x00	; 0
	.db #0x00	; 0
	.db #0x00	; 0
	.db #0x00	; 0
	.db #0x00	; 0
	.db #0x0c	; 12
	.db #0x0c	; 12
	.db #0x06	; 6
	.db #0x00	; 0
	.db #0x00	; 0
	.db #0x00	; 0
	.db #0x3f	; 63
	.db #0x00	; 0
	.db #0x00	; 0
	.db #0x00	; 0
	.db #0x00	; 0
	.db #0x00	; 0
	.db #0x00	; 0
	.db #0x00	; 0
	.db #0x00	; 0
	.db #0x00	; 0
	.db #0x0c	; 12
	.db #0x0c	; 12
	.db #0x00	; 0
	.db #0x60	; 96
	.db #0x30	; 48	'0'
	.db #0x18	; 24
	.db #0x0c	; 12
	.db #0x06	; 6
	.db #0x03	; 3
	.db #0x01	; 1
	.db #0x00	; 0
	.db #0x3e	; 62
	.db #0x63	; 99	'c'
	.db #0x73	; 115	's'
	.db #0x7b	; 123
	.db #0x6f	; 111	'o'
	.db #0x67	; 103	'g'
	.db #0x3e	; 62
	.db #0x00	; 0
	.db #0x0c	; 12
	.db #0x0e	; 14
	.db #0x0c	; 12
	.db #0x0c	; 12
	.db #0x0c	; 12
	.db #0x0c	; 12
	.db #0x3f	; 63
	.db #0x00	; 0
	.db #0x1e	; 30
	.db #0x33	; 51	'3'
	.db #0x30	; 48	'0'
	.db #0x1c	; 28
	.db #0x06	; 6
	.db #0x33	; 51	'3'
	.db #0x3f	; 63
	.db #0x00	; 0
	.db #0x1e	; 30
	.db #0x33	; 51	'3'
	.db #0x30	; 48	'0'
	.db #0x1c	; 28
	.db #0x30	; 48	'0'
	.db #0x33	; 51	'3'
	.db #0x1e	; 30
	.db #0x00	; 0
	.db #0x38	; 56	'8'
	.db #0x3c	; 60
	.db #0x36	; 54	'6'
	.db #0x33	; 51	'3'
	.db #0x7f	; 127
	.db #0x30	; 48	'0'
	.db #0x78	; 120	'x'
	.db #0x00	; 0
	.db #0x3f	; 63
	.db #0x03	; 3
	.db #0x1f	; 31
	.db #0x30	; 48	'0'
	.db #0x30	; 48	'0'
	.db #0x33	; 51	'3'
	.db #0x1e	; 30
	.db #0x00	; 0
	.db #0x1c	; 28
	.db #0x06	; 6
	.db #0x03	; 3
	.db #0x1f	; 31
	.db #0x33	; 51	'3'
	.db #0x33	; 51	'3'
	.db #0x1e	; 30
	.db #0x00	; 0
	.db #0x3f	; 63
	.db #0x33	; 51	'3'
	.db #0x30	; 48	'0'
	.db #0x18	; 24
	.db #0x0c	; 12
	.db #0x0c	; 12
	.db #0x0c	; 12
	.db #0x00	; 0
	.db #0x1e	; 30
	.db #0x33	; 51	'3'
	.db #0x33	; 51	'3'
	.db #0x1e	; 30
	.db #0x33	; 51	'3'
	.db #0x33	; 51	'3'
	.db #0x1e	; 30
	.db #0x00	; 0
	.db #0x1e	; 30
	.db #0x33	; 51	'3'
	.db #0x33	; 51	'3'
	.db #0x3e	; 62
	.db #0x30	; 48	'0'
	.db #0x18	; 24
	.db #0x0e	; 14
	.db #0x00	; 0
	.db #0x00	; 0
	.db #0x0c	; 12
	.db #0x0c	; 12
	.db #0x00	; 0
	.db #0x00	; 0
	.db #0x0c	; 12
	.db #0x0c	; 12
	.db #0x00	; 0
	.db #0x00	; 0
	.db #0x0c	; 12
	.db #0x0c	; 12
	.db #0x00	; 0
	.db #0x00	; 0
	.db #0x0c	; 12
	.db #0x0c	; 12
	.db #0x06	; 6
	.db #0x18	; 24
	.db #0x0c	; 12
	.db #0x06	; 6
	.db #0x03	; 3
	.db #0x06	; 6
	.db #0x0c	; 12
	.db #0x18	; 24
	.db #0x00	; 0
	.db #0x00	; 0
	.db #0x00	; 0
	.db #0x3f	; 63
	.db #0x00	; 0
	.db #0x00	; 0
	.db #0x3f	; 63
	.db #0x00	; 0
	.db #0x00	; 0
	.db #0x06	; 6
	.db #0x0c	; 12
	.db #0x18	; 24
	.db #0x30	; 48	'0'
	.db #0x18	; 24
	.db #0x0c	; 12
	.db #0x06	; 6
	.db #0x00	; 0
	.db #0x1e	; 30
	.db #0x33	; 51	'3'
	.db #0x30	; 48	'0'
	.db #0x18	; 24
	.db #0x0c	; 12
	.db #0x00	; 0
	.db #0x0c	; 12
	.db #0x00	; 0
	.db #0x3e	; 62
	.db #0x63	; 99	'c'
	.db #0x7b	; 123
	.db #0x7b	; 123
	.db #0x7b	; 123
	.db #0x03	; 3
	.db #0x1e	; 30
	.db #0x00	; 0
	.db #0x0c	; 12
	.db #0x1e	; 30
	.db #0x33	; 51	'3'
	.db #0x33	; 51	'3'
	.db #0x3f	; 63
	.db #0x33	; 51	'3'
	.db #0x33	; 51	'3'
	.db #0x00	; 0
	.db #0x3f	; 63
	.db #0x66	; 102	'f'
	.db #0x66	; 102	'f'
	.db #0x3e	; 62
	.db #0x66	; 102	'f'
	.db #0x66	; 102	'f'
	.db #0x3f	; 63
	.db #0x00	; 0
	.db #0x3c	; 60
	.db #0x66	; 102	'f'
	.db #0x03	; 3
	.db #0x03	; 3
	.db #0x03	; 3
	.db #0x66	; 102	'f'
	.db #0x3c	; 60
	.db #0x00	; 0
	.db #0x1f	; 31
	.db #0x36	; 54	'6'
	.db #0x66	; 102	'f'
	.db #0x66	; 102	'f'
	.db #0x66	; 102	'f'
	.db #0x36	; 54	'6'
	.db #0x1f	; 31
	.db #0x00	; 0
	.db #0x7f	; 127
	.db #0x46	; 70	'F'
	.db #0x16	; 22
	.db #0x1e	; 30
	.db #0x16	; 22
	.db #0x46	; 70	'F'
	.db #0x7f	; 127
	.db #0x00	; 0
	.db #0x7f	; 127
	.db #0x46	; 70	'F'
	.db #0x16	; 22
	.db #0x1e	; 30
	.db #0x16	; 22
	.db #0x06	; 6
	.db #0x0f	; 15
	.db #0x00	; 0
	.db #0x3c	; 60
	.db #0x66	; 102	'f'
	.db #0x03	; 3
	.db #0x03	; 3
	.db #0x73	; 115	's'
	.db #0x66	; 102	'f'
	.db #0x7c	; 124
	.db #0x00	; 0
	.db #0x33	; 51	'3'
	.db #0x33	; 51	'3'
	.db #0x33	; 51	'3'
	.db #0x3f	; 63
	.db #0x33	; 51	'3'
	.db #0x33	; 51	'3'
	.db #0x33	; 51	'3'
	.db #0x00	; 0
	.db #0x1e	; 30
	.db #0x0c	; 12
	.db #0x0c	; 12
	.db #0x0c	; 12
	.db #0x0c	; 12
	.db #0x0c	; 12
	.db #0x1e	; 30
	.db #0x00	; 0
	.db #0x78	; 120	'x'
	.db #0x30	; 48	'0'
	.db #0x30	; 48	'0'
	.db #0x30	; 48	'0'
	.db #0x33	; 51	'3'
	.db #0x33	; 51	'3'
	.db #0x1e	; 30
	.db #0x00	; 0
	.db #0x67	; 103	'g'
	.db #0x66	; 102	'f'
	.db #0x36	; 54	'6'
	.db #0x1e	; 30
	.db #0x36	; 54	'6'
	.db #0x66	; 102	'f'
	.db #0x67	; 103	'g'
	.db #0x00	; 0
	.db #0x0f	; 15
	.db #0x06	; 6
	.db #0x06	; 6
	.db #0x06	; 6
	.db #0x46	; 70	'F'
	.db #0x66	; 102	'f'
	.db #0x7f	; 127
	.db #0x00	; 0
	.db #0x63	; 99	'c'
	.db #0x77	; 119	'w'
	.db #0x7f	; 127
	.db #0x7f	; 127
	.db #0x6b	; 107	'k'
	.db #0x63	; 99	'c'
	.db #0x63	; 99	'c'
	.db #0x00	; 0
	.db #0x63	; 99	'c'
	.db #0x67	; 103	'g'
	.db #0x6f	; 111	'o'
	.db #0x7b	; 123
	.db #0x73	; 115	's'
	.db #0x63	; 99	'c'
	.db #0x63	; 99	'c'
	.db #0x00	; 0
	.db #0x1c	; 28
	.db #0x36	; 54	'6'
	.db #0x63	; 99	'c'
	.db #0x63	; 99	'c'
	.db #0x63	; 99	'c'
	.db #0x36	; 54	'6'
	.db #0x1c	; 28
	.db #0x00	; 0
	.db #0x3f	; 63
	.db #0x66	; 102	'f'
	.db #0x66	; 102	'f'
	.db #0x3e	; 62
	.db #0x06	; 6
	.db #0x06	; 6
	.db #0x0f	; 15
	.db #0x00	; 0
	.db #0x1e	; 30
	.db #0x33	; 51	'3'
	.db #0x33	; 51	'3'
	.db #0x33	; 51	'3'
	.db #0x3b	; 59
	.db #0x1e	; 30
	.db #0x38	; 56	'8'
	.db #0x00	; 0
	.db #0x3f	; 63
	.db #0x66	; 102	'f'
	.db #0x66	; 102	'f'
	.db #0x3e	; 62
	.db #0x36	; 54	'6'
	.db #0x66	; 102	'f'
	.db #0x67	; 103	'g'
	.db #0x00	; 0
	.db #0x1e	; 30
	.db #0x33	; 51	'3'
	.db #0x07	; 7
	.db #0x0e	; 14
	.db #0x38	; 56	'8'
	.db #0x33	; 51	'3'
	.db #0x1e	; 30
	.db #0x00	; 0
	.db #0x3f	; 63
	.db #0x2d	; 45
	.db #0x0c	; 12
	.db #0x0c	; 12
	.db #0x0c	; 12
	.db #0x0c	; 12
	.db #0x1e	; 30
	.db #0x00	; 0
	.db #0x33	; 51	'3'
	.db #0x33	; 51	'3'
	.db #0x33	; 51	'3'
	.db #0x33	; 51	'3'
	.db #0x33	; 51	'3'
	.db #0x33	; 51	'3'
	.db #0x3f	; 63
	.db #0x00	; 0
	.db #0x33	; 51	'3'
	.db #0x33	; 51	'3'
	.db #0x33	; 51	'3'
	.db #0x33	; 51	'3'
	.db #0x33	; 51	'3'
	.db #0x1e	; 30
	.db #0x0c	; 12
	.db #0x00	; 0
	.db #0x63	; 99	'c'
	.db #0x63	; 99	'c'
	.db #0x63	; 99	'c'
	.db #0x6b	; 107	'k'
	.db #0x7f	; 127
	.db #0x77	; 119	'w'
	.db #0x63	; 99	'c'
	.db #0x00	; 0
	.db #0x63	; 99	'c'
	.db #0x63	; 99	'c'
	.db #0x36	; 54	'6'
	.db #0x1c	; 28
	.db #0x1c	; 28
	.db #0x36	; 54	'6'
	.db #0x63	; 99	'c'
	.db #0x00	; 0
	.db #0x33	; 51	'3'
	.db #0x33	; 51	'3'
	.db #0x33	; 51	'3'
	.db #0x1e	; 30
	.db #0x0c	; 12
	.db #0x0c	; 12
	.db #0x1e	; 30
	.db #0x00	; 0
	.db #0x7f	; 127
	.db #0x63	; 99	'c'
	.db #0x31	; 49	'1'
	.db #0x18	; 24
	.db #0x4c	; 76	'L'
	.db #0x66	; 102	'f'
	.db #0x7f	; 127
	.db #0x00	; 0
	.db #0x1e	; 30
	.db #0x06	; 6
	.db #0x06	; 6
	.db #0x06	; 6
	.db #0x06	; 6
	.db #0x06	; 6
	.db #0x1e	; 30
	.db #0x00	; 0
	.db #0x03	; 3
	.db #0x06	; 6
	.db #0x0c	; 12
	.db #0x18	; 24
	.db #0x30	; 48	'0'
	.db #0x60	; 96
	.db #0x40	; 64
	.db #0x00	; 0
	.db #0x1e	; 30
	.db #0x18	; 24
	.db #0x18	; 24
	.db #0x18	; 24
	.db #0x18	; 24
	.db #0x18	; 24
	.db #0x1e	; 30
	.db #0x00	; 0
	.db #0x08	; 8
	.db #0x1c	; 28
	.db #0x36	; 54	'6'
	.db #0x63	; 99	'c'
	.db #0x00	; 0
	.db #0x00	; 0
	.db #0x00	; 0
	.db #0x00	; 0
	.db #0x00	; 0
	.db #0x00	; 0
	.db #0x00	; 0
	.db #0x00	; 0
	.db #0x00	; 0
	.db #0x00	; 0
	.db #0x00	; 0
	.db #0xff	; 255
	.db #0x0c	; 12
	.db #0x0c	; 12
	.db #0x18	; 24
	.db #0x00	; 0
	.db #0x00	; 0
	.db #0x00	; 0
	.db #0x00	; 0
	.db #0x00	; 0
	.db #0x00	; 0
	.db #0x00	; 0
	.db #0x1e	; 30
	.db #0x30	; 48	'0'
	.db #0x3e	; 62
	.db #0x33	; 51	'3'
	.db #0x6e	; 110	'n'
	.db #0x00	; 0
	.db #0x07	; 7
	.db #0x06	; 6
	.db #0x06	; 6
	.db #0x3e	; 62
	.db #0x66	; 102	'f'
	.db #0x66	; 102	'f'
	.db #0x3b	; 59
	.db #0x00	; 0
	.db #0x00	; 0
	.db #0x00	; 0
	.db #0x1e	; 30
	.db #0x33	; 51	'3'
	.db #0x03	; 3
	.db #0x33	; 51	'3'
	.db #0x1e	; 30
	.db #0x00	; 0
	.db #0x38	; 56	'8'
	.db #0x30	; 48	'0'
	.db #0x30	; 48	'0'
	.db #0x3e	; 62
	.db #0x33	; 51	'3'
	.db #0x33	; 51	'3'
	.db #0x6e	; 110	'n'
	.db #0x00	; 0
	.db #0x00	; 0
	.db #0x00	; 0
	.db #0x1e	; 30
	.db #0x33	; 51	'3'
	.db #0x3f	; 63
	.db #0x03	; 3
	.db #0x1e	; 30
	.db #0x00	; 0
	.db #0x1c	; 28
	.db #0x36	; 54	'6'
	.db #0x06	; 6
	.db #0x0f	; 15
	.db #0x06	; 6
	.db #0x06	; 6
	.db #0x0f	; 15
	.db #0x00	; 0
	.db #0x00	; 0
	.db #0x00	; 0
	.db #0x6e	; 110	'n'
	.db #0x33	; 51	'3'
	.db #0x33	; 51	'3'
	.db #0x3e	; 62
	.db #0x30	; 48	'0'
	.db #0x1f	; 31
	.db #0x07	; 7
	.db #0x06	; 6
	.db #0x36	; 54	'6'
	.db #0x6e	; 110	'n'
	.db #0x66	; 102	'f'
	.db #0x66	; 102	'f'
	.db #0x67	; 103	'g'
	.db #0x00	; 0
	.db #0x0c	; 12
	.db #0x00	; 0
	.db #0x0e	; 14
	.db #0x0c	; 12
	.db #0x0c	; 12
	.db #0x0c	; 12
	.db #0x1e	; 30
	.db #0x00	; 0
	.db #0x30	; 48	'0'
	.db #0x00	; 0
	.db #0x30	; 48	'0'
	.db #0x30	; 48	'0'
	.db #0x30	; 48	'0'
	.db #0x33	; 51	'3'
	.db #0x33	; 51	'3'
	.db #0x1e	; 30
	.db #0x07	; 7
	.db #0x06	; 6
	.db #0x66	; 102	'f'
	.db #0x36	; 54	'6'
	.db #0x1e	; 30
	.db #0x36	; 54	'6'
	.db #0x67	; 103	'g'
	.db #0x00	; 0
	.db #0x0e	; 14
	.db #0x0c	; 12
	.db #0x0c	; 12
	.db #0x0c	; 12
	.db #0x0c	; 12
	.db #0x0c	; 12
	.db #0x1e	; 30
	.db #0x00	; 0
	.db #0x00	; 0
	.db #0x00	; 0
	.db #0x33	; 51	'3'
	.db #0x7f	; 127
	.db #0x7f	; 127
	.db #0x6b	; 107	'k'
	.db #0x63	; 99	'c'
	.db #0x00	; 0
	.db #0x00	; 0
	.db #0x00	; 0
	.db #0x1f	; 31
	.db #0x33	; 51	'3'
	.db #0x33	; 51	'3'
	.db #0x33	; 51	'3'
	.db #0x33	; 51	'3'
	.db #0x00	; 0
	.db #0x00	; 0
	.db #0x00	; 0
	.db #0x1e	; 30
	.db #0x33	; 51	'3'
	.db #0x33	; 51	'3'
	.db #0x33	; 51	'3'
	.db #0x1e	; 30
	.db #0x00	; 0
	.db #0x00	; 0
	.db #0x00	; 0
	.db #0x3b	; 59
	.db #0x66	; 102	'f'
	.db #0x66	; 102	'f'
	.db #0x3e	; 62
	.db #0x06	; 6
	.db #0x0f	; 15
	.db #0x00	; 0
	.db #0x00	; 0
	.db #0x6e	; 110	'n'
	.db #0x33	; 51	'3'
	.db #0x33	; 51	'3'
	.db #0x3e	; 62
	.db #0x30	; 48	'0'
	.db #0x78	; 120	'x'
	.db #0x00	; 0
	.db #0x00	; 0
	.db #0x3b	; 59
	.db #0x6e	; 110	'n'
	.db #0x66	; 102	'f'
	.db #0x06	; 6
	.db #0x0f	; 15
	.db #0x00	; 0
	.db #0x00	; 0
	.db #0x00	; 0
	.db #0x3e	; 62
	.db #0x03	; 3
	.db #0x1e	; 30
	.db #0x30	; 48	'0'
	.db #0x1f	; 31
	.db #0x00	; 0
	.db #0x08	; 8
	.db #0x0c	; 12
	.db #0x3e	; 62
	.db #0x0c	; 12
	.db #0x0c	; 12
	.db #0x2c	; 44
	.db #0x18	; 24
	.db #0x00	; 0
	.db #0x00	; 0
	.db #0x00	; 0
	.db #0x33	; 51	'3'
	.db #0x33	; 51	'3'
	.db #0x33	; 51	'3'
	.db #0x33	; 51	'3'
	.db #0x6e	; 110	'n'
	.db #0x00	; 0
	.db #0x00	; 0
	.db #0x00	; 0
	.db #0x33	; 51	'3'
	.db #0x33	; 51	'3'
	.db #0x33	; 51	'3'
	.db #0x1e	; 30
	.db #0x0c	; 12
	.db #0x00	; 0
	.db #0x00	; 0
	.db #0x00	; 0
	.db #0x63	; 99	'c'
	.db #0x6b	; 107	'k'
	.db #0x7f	; 127
	.db #0x7f	; 127
	.db #0x36	; 54	'6'
	.db #0x00	; 0
	.db #0x00	; 0
	.db #0x00	; 0
	.db #0x63	; 99	'c'
	.db #0x36	; 54	'6'
	.db #0x1c	; 28
	.db #0x36	; 54	'6'
	.db #0x63	; 99	'c'
	.db #0x00	; 0
	.db #0x00	; 0
	.db #0x00	; 0
	.db #0x33	; 51	'3'
	.db #0x33	; 51	'3'
	.db #0x33	; 51	'3'
	.db #0x3e	; 62
	.db #0x30	; 48	'0'
	.db #0x1f	; 31
	.db #0x00	; 0
	.db #0x00	; 0
	.db #0x3f	; 63
	.db #0x19	; 25
	.db #0x0c	; 12
	.db #0x26	; 38
	.db #0x3f	; 63
	.db #0x00	; 0
	.db #0x38	; 56	'8'
	.db #0x0c	; 12
	.db #0x0c	; 12
	.db #0x07	; 7
	.db #0x0c	; 12
	.db #0x0c	; 12
	.db #0x38	; 56	'8'
	.db #0x00	; 0
	.db #0x18	; 24
	.db #0x18	; 24
	.db #0x18	; 24
	.db #0x00	; 0
	.db #0x18	; 24
	.db #0x18	; 24
	.db #0x18	; 24
	.db #0x00	; 0
	.db #0x07	; 7
	.db #0x0c	; 12
	.db #0x0c	; 12
	.db #0x38	; 56	'8'
	.db #0x0c	; 12
	.db #0x0c	; 12
	.db #0x07	; 7
	.db #0x00	; 0
	.db #0x6e	; 110	'n'
	.db #0x3b	; 59
	.db #0x00	; 0
	.db #0x00	; 0
	.db #0x00	; 0
	.db #0x00	; 0
	.db #0x00	; 0
	.db #0x00	; 0
	.db #0x00	; 0
	.db #0x00	; 0
	.db #0x00	; 0
	.db #0x00	; 0
	.db #0x00	; 0
	.db #0x00	; 0
	.db #0x00	; 0
	.db #0x00	; 0
_FontOG:
	.db #0x00	; 0
	.db #0x00	; 0
	.db #0x00	; 0
	.db #0x00	; 0
	.db #0x00	; 0
	.db #0x00	; 0
	.db #0x00	; 0
	.db #0x00	; 0
	.db #0x00	; 0
	.db #0x00	; 0
	.db #0x00	; 0
	.db #0x00	; 0
	.db #0x00	; 0
	.db #0x00	; 0
	.db #0x00	; 0
	.db #0x00	; 0
	.db #0x7c	; 124
	.db #0x7c	; 124
	.db #0x86	; 134
	.db #0x86	; 134
	.db #0x8a	; 138
	.db #0x8a	; 138
	.db #0x92	; 146
	.db #0x92	; 146
	.db #0xa2	; 162
	.db #0xa2	; 162
	.db #0xc2	; 194
	.db #0xc2	; 194
	.db #0x7c	; 124
	.db #0x7c	; 124
	.db #0x00	; 0
	.db #0x00	; 0
	.db #0x10	; 16
	.db #0x10	; 16
	.db #0x30	; 48	'0'
	.db #0x30	; 48	'0'
	.db #0x10	; 16
	.db #0x10	; 16
	.db #0x10	; 16
	.db #0x10	; 16
	.db #0x10	; 16
	.db #0x10	; 16
	.db #0x10	; 16
	.db #0x10	; 16
	.db #0x7c	; 124
	.db #0x7c	; 124
	.db #0x00	; 0
	.db #0x00	; 0
	.db #0x7c	; 124
	.db #0x7c	; 124
	.db #0x82	; 130
	.db #0x82	; 130
	.db #0x02	; 2
	.db #0x02	; 2
	.db #0x1c	; 28
	.db #0x1c	; 28
	.db #0x60	; 96
	.db #0x60	; 96
	.db #0x80	; 128
	.db #0x80	; 128
	.db #0xfe	; 254
	.db #0xfe	; 254
	.db #0x00	; 0
	.db #0x00	; 0
	.db #0xfe	; 254
	.db #0xfe	; 254
	.db #0x04	; 4
	.db #0x04	; 4
	.db #0x18	; 24
	.db #0x18	; 24
	.db #0x04	; 4
	.db #0x04	; 4
	.db #0x02	; 2
	.db #0x02	; 2
	.db #0x82	; 130
	.db #0x82	; 130
	.db #0x7c	; 124
	.db #0x7c	; 124
	.db #0x00	; 0
	.db #0x00	; 0
	.db #0x0c	; 12
	.db #0x0c	; 12
	.db #0x14	; 20
	.db #0x14	; 20
	.db #0x24	; 36
	.db #0x24	; 36
	.db #0x44	; 68	'D'
	.db #0x44	; 68	'D'
	.db #0x84	; 132
	.db #0x84	; 132
	.db #0xfe	; 254
	.db #0xfe	; 254
	.db #0x04	; 4
	.db #0x04	; 4
	.db #0x00	; 0
	.db #0x00	; 0
	.db #0xfc	; 252
	.db #0xfc	; 252
	.db #0x80	; 128
	.db #0x80	; 128
	.db #0xfc	; 252
	.db #0xfc	; 252
	.db #0x02	; 2
	.db #0x02	; 2
	.db #0x02	; 2
	.db #0x02	; 2
	.db #0x82	; 130
	.db #0x82	; 130
	.db #0x7c	; 124
	.db #0x7c	; 124
	.db #0x00	; 0
	.db #0x00	; 0
	.db #0x7c	; 124
	.db #0x7c	; 124
	.db #0x80	; 128
	.db #0x80	; 128
	.db #0x80	; 128
	.db #0x80	; 128
	.db #0xfc	; 252
	.db #0xfc	; 252
	.db #0x82	; 130
	.db #0x82	; 130
	.db #0x82	; 130
	.db #0x82	; 130
	.db #0x7c	; 124
	.db #0x7c	; 124
	.db #0x00	; 0
	.db #0x00	; 0
	.db #0xfe	; 254
	.db #0xfe	; 254
	.db #0x82	; 130
	.db #0x82	; 130
	.db #0x04	; 4
	.db #0x04	; 4
	.db #0x08	; 8
	.db #0x08	; 8
	.db #0x10	; 16
	.db #0x10	; 16
	.db #0x10	; 16
	.db #0x10	; 16
	.db #0x10	; 16
	.db #0x10	; 16
	.db #0x00	; 0
	.db #0x00	; 0
	.db #0x7c	; 124
	.db #0x7c	; 124
	.db #0x82	; 130
	.db #0x82	; 130
	.db #0x82	; 130
	.db #0x82	; 130
	.db #0x7c	; 124
	.db #0x7c	; 124
	.db #0x82	; 130
	.db #0x82	; 130
	.db #0x82	; 130
	.db #0x82	; 130
	.db #0x7c	; 124
	.db #0x7c	; 124
	.db #0x00	; 0
	.db #0x00	; 0
	.db #0x7c	; 124
	.db #0x7c	; 124
	.db #0x82	; 130
	.db #0x82	; 130
	.db #0x82	; 130
	.db #0x82	; 130
	.db #0x7e	; 126
	.db #0x7e	; 126
	.db #0x02	; 2
	.db #0x02	; 2
	.db #0x02	; 2
	.db #0x02	; 2
	.db #0x7c	; 124
	.db #0x7c	; 124
	.db #0x00	; 0
	.db #0x00	; 0
	.db #0x00	; 0
	.db #0x38	; 56	'8'
	.db #0x00	; 0
	.db #0x44	; 68	'D'
	.db #0x00	; 0
	.db #0x82	; 130
	.db #0x00	; 0
	.db #0x82	; 130
	.db #0x00	; 0
	.db #0xfe	; 254
	.db #0x00	; 0
	.db #0x82	; 130
	.db #0x00	; 0
	.db #0x82	; 130
	.db #0x00	; 0
	.db #0x00	; 0
	.db #0x00	; 0
	.db #0xfc	; 252
	.db #0x00	; 0
	.db #0x82	; 130
	.db #0x00	; 0
	.db #0x82	; 130
	.db #0x00	; 0
	.db #0xfc	; 252
	.db #0x00	; 0
	.db #0x82	; 130
	.db #0x00	; 0
	.db #0x82	; 130
	.db #0x00	; 0
	.db #0xfc	; 252
	.db #0x00	; 0
	.db #0x00	; 0
	.db #0x00	; 0
	.db #0x7c	; 124
	.db #0x00	; 0
	.db #0x82	; 130
	.db #0x00	; 0
	.db #0x80	; 128
	.db #0x00	; 0
	.db #0x80	; 128
	.db #0x00	; 0
	.db #0x80	; 128
	.db #0x00	; 0
	.db #0x82	; 130
	.db #0x00	; 0
	.db #0x7c	; 124
	.db #0x00	; 0
	.db #0x00	; 0
	.db #0x00	; 0
	.db #0xf8	; 248
	.db #0x00	; 0
	.db #0x84	; 132
	.db #0x00	; 0
	.db #0x82	; 130
	.db #0x00	; 0
	.db #0x82	; 130
	.db #0x00	; 0
	.db #0x82	; 130
	.db #0x00	; 0
	.db #0x84	; 132
	.db #0x00	; 0
	.db #0xf8	; 248
	.db #0x00	; 0
	.db #0x00	; 0
	.db #0x00	; 0
	.db #0xfe	; 254
	.db #0x00	; 0
	.db #0x80	; 128
	.db #0x00	; 0
	.db #0x80	; 128
	.db #0x00	; 0
	.db #0xfc	; 252
	.db #0x00	; 0
	.db #0x80	; 128
	.db #0x00	; 0
	.db #0x80	; 128
	.db #0x00	; 0
	.db #0xfe	; 254
	.db #0x00	; 0
	.db #0x00	; 0
	.db #0x00	; 0
	.db #0xfe	; 254
	.db #0x00	; 0
	.db #0x80	; 128
	.db #0x00	; 0
	.db #0x80	; 128
	.db #0x00	; 0
	.db #0xfc	; 252
	.db #0x00	; 0
	.db #0x80	; 128
	.db #0x00	; 0
	.db #0x80	; 128
	.db #0x00	; 0
	.db #0x80	; 128
	.db #0x00	; 0
	.db #0x00	; 0
	.db #0x00	; 0
	.db #0x7c	; 124
	.db #0x00	; 0
	.db #0x82	; 130
	.db #0x00	; 0
	.db #0x80	; 128
	.db #0x00	; 0
	.db #0x80	; 128
	.db #0x00	; 0
	.db #0x8e	; 142
	.db #0x00	; 0
	.db #0x82	; 130
	.db #0x00	; 0
	.db #0x7e	; 126
	.db #0x00	; 0
	.db #0x00	; 0
	.db #0x00	; 0
	.db #0x82	; 130
	.db #0x00	; 0
	.db #0x82	; 130
	.db #0x00	; 0
	.db #0x82	; 130
	.db #0x00	; 0
	.db #0xfe	; 254
	.db #0x00	; 0
	.db #0x82	; 130
	.db #0x00	; 0
	.db #0x82	; 130
	.db #0x00	; 0
	.db #0x82	; 130
	.db #0x00	; 0
	.db #0x00	; 0
	.db #0x00	; 0
	.db #0x7c	; 124
	.db #0x00	; 0
	.db #0x10	; 16
	.db #0x00	; 0
	.db #0x10	; 16
	.db #0x00	; 0
	.db #0x10	; 16
	.db #0x00	; 0
	.db #0x10	; 16
	.db #0x00	; 0
	.db #0x10	; 16
	.db #0x00	; 0
	.db #0x7c	; 124
	.db #0x00	; 0
	.db #0x00	; 0
	.db #0x00	; 0
	.db #0x1e	; 30
	.db #0x00	; 0
	.db #0x04	; 4
	.db #0x00	; 0
	.db #0x04	; 4
	.db #0x00	; 0
	.db #0x04	; 4
	.db #0x00	; 0
	.db #0x04	; 4
	.db #0x00	; 0
	.db #0x84	; 132
	.db #0x00	; 0
	.db #0x78	; 120	'x'
	.db #0x00	; 0
	.db #0x00	; 0
	.db #0x00	; 0
	.db #0x84	; 132
	.db #0x00	; 0
	.db #0x88	; 136
	.db #0x00	; 0
	.db #0x90	; 144
	.db #0x00	; 0
	.db #0xf0	; 240
	.db #0x00	; 0
	.db #0x88	; 136
	.db #0x00	; 0
	.db #0x84	; 132
	.db #0x00	; 0
	.db #0x82	; 130
	.db #0x00	; 0
	.db #0x00	; 0
	.db #0x00	; 0
	.db #0x40	; 64
	.db #0x00	; 0
	.db #0x40	; 64
	.db #0x00	; 0
	.db #0x40	; 64
	.db #0x00	; 0
	.db #0x40	; 64
	.db #0x00	; 0
	.db #0x40	; 64
	.db #0x00	; 0
	.db #0x40	; 64
	.db #0x00	; 0
	.db #0x7e	; 126
	.db #0x00	; 0
	.db #0x00	; 0
	.db #0x00	; 0
	.db #0x82	; 130
	.db #0x00	; 0
	.db #0xc6	; 198
	.db #0x00	; 0
	.db #0xaa	; 170
	.db #0x00	; 0
	.db #0x92	; 146
	.db #0x00	; 0
	.db #0x82	; 130
	.db #0x00	; 0
	.db #0x82	; 130
	.db #0x00	; 0
	.db #0x82	; 130
	.db #0x00	; 0
	.db #0x00	; 0
	.db #0x00	; 0
	.db #0x82	; 130
	.db #0x00	; 0
	.db #0xc2	; 194
	.db #0x00	; 0
	.db #0xa2	; 162
	.db #0x00	; 0
	.db #0x92	; 146
	.db #0x00	; 0
	.db #0x8a	; 138
	.db #0x00	; 0
	.db #0x86	; 134
	.db #0x00	; 0
	.db #0x82	; 130
	.db #0x00	; 0
	.db #0x00	; 0
	.db #0x00	; 0
	.db #0x7c	; 124
	.db #0x00	; 0
	.db #0x82	; 130
	.db #0x00	; 0
	.db #0x82	; 130
	.db #0x00	; 0
	.db #0x82	; 130
	.db #0x00	; 0
	.db #0x82	; 130
	.db #0x00	; 0
	.db #0x82	; 130
	.db #0x00	; 0
	.db #0x7c	; 124
	.db #0x00	; 0
	.db #0x00	; 0
	.db #0x00	; 0
	.db #0xfc	; 252
	.db #0x00	; 0
	.db #0x82	; 130
	.db #0x00	; 0
	.db #0x82	; 130
	.db #0x00	; 0
	.db #0x82	; 130
	.db #0x00	; 0
	.db #0xfc	; 252
	.db #0x00	; 0
	.db #0x80	; 128
	.db #0x00	; 0
	.db #0x80	; 128
	.db #0x00	; 0
	.db #0x00	; 0
	.db #0x00	; 0
	.db #0x7c	; 124
	.db #0x00	; 0
	.db #0x82	; 130
	.db #0x00	; 0
	.db #0x82	; 130
	.db #0x00	; 0
	.db #0x92	; 146
	.db #0x00	; 0
	.db #0x8a	; 138
	.db #0x00	; 0
	.db #0x84	; 132
	.db #0x00	; 0
	.db #0x7a	; 122	'z'
	.db #0x00	; 0
	.db #0x00	; 0
	.db #0x00	; 0
	.db #0xfc	; 252
	.db #0x00	; 0
	.db #0x82	; 130
	.db #0x00	; 0
	.db #0x82	; 130
	.db #0x00	; 0
	.db #0x84	; 132
	.db #0x00	; 0
	.db #0xf8	; 248
	.db #0x00	; 0
	.db #0x84	; 132
	.db #0x00	; 0
	.db #0x82	; 130
	.db #0x00	; 0
	.db #0x00	; 0
	.db #0x00	; 0
	.db #0x7c	; 124
	.db #0x00	; 0
	.db #0x80	; 128
	.db #0x00	; 0
	.db #0x80	; 128
	.db #0x00	; 0
	.db #0x7c	; 124
	.db #0x00	; 0
	.db #0x02	; 2
	.db #0x00	; 0
	.db #0x02	; 2
	.db #0x00	; 0
	.db #0xfc	; 252
	.db #0x00	; 0
	.db #0x00	; 0
	.db #0x00	; 0
	.db #0xfe	; 254
	.db #0x00	; 0
	.db #0x10	; 16
	.db #0x00	; 0
	.db #0x10	; 16
	.db #0x00	; 0
	.db #0x10	; 16
	.db #0x00	; 0
	.db #0x10	; 16
	.db #0x00	; 0
	.db #0x10	; 16
	.db #0x00	; 0
	.db #0x10	; 16
	.db #0x00	; 0
	.db #0x00	; 0
	.db #0x00	; 0
	.db #0x82	; 130
	.db #0x00	; 0
	.db #0x82	; 130
	.db #0x00	; 0
	.db #0x82	; 130
	.db #0x00	; 0
	.db #0x82	; 130
	.db #0x00	; 0
	.db #0x82	; 130
	.db #0x00	; 0
	.db #0x82	; 130
	.db #0x00	; 0
	.db #0x7c	; 124
	.db #0x00	; 0
	.db #0x00	; 0
	.db #0x00	; 0
	.db #0x82	; 130
	.db #0x00	; 0
	.db #0x82	; 130
	.db #0x00	; 0
	.db #0x82	; 130
	.db #0x00	; 0
	.db #0x82	; 130
	.db #0x00	; 0
	.db #0x44	; 68	'D'
	.db #0x00	; 0
	.db #0x28	; 40
	.db #0x00	; 0
	.db #0x10	; 16
	.db #0x00	; 0
	.db #0x00	; 0
	.db #0x00	; 0
	.db #0x82	; 130
	.db #0x00	; 0
	.db #0x82	; 130
	.db #0x00	; 0
	.db #0x82	; 130
	.db #0x00	; 0
	.db #0x92	; 146
	.db #0x00	; 0
	.db #0xaa	; 170
	.db #0x00	; 0
	.db #0xc6	; 198
	.db #0x00	; 0
	.db #0x82	; 130
	.db #0x00	; 0
	.db #0x00	; 0
	.db #0x00	; 0
	.db #0x82	; 130
	.db #0x00	; 0
	.db #0x44	; 68	'D'
	.db #0x00	; 0
	.db #0x28	; 40
	.db #0x00	; 0
	.db #0x10	; 16
	.db #0x00	; 0
	.db #0x28	; 40
	.db #0x00	; 0
	.db #0x44	; 68	'D'
	.db #0x00	; 0
	.db #0x82	; 130
	.db #0x00	; 0
	.db #0x00	; 0
	.db #0x00	; 0
	.db #0x82	; 130
	.db #0x00	; 0
	.db #0x44	; 68	'D'
	.db #0x00	; 0
	.db #0x28	; 40
	.db #0x00	; 0
	.db #0x10	; 16
	.db #0x00	; 0
	.db #0x10	; 16
	.db #0x00	; 0
	.db #0x10	; 16
	.db #0x00	; 0
	.db #0x10	; 16
	.db #0x00	; 0
	.db #0x00	; 0
	.db #0x00	; 0
	.db #0xfe	; 254
	.db #0x00	; 0
	.db #0x04	; 4
	.db #0x00	; 0
	.db #0x08	; 8
	.db #0x00	; 0
	.db #0x10	; 16
	.db #0x00	; 0
	.db #0x20	; 32
	.db #0x00	; 0
	.db #0x40	; 64
	.db #0x00	; 0
	.db #0xfe	; 254
	.db #0x00	; 0
	.db #0x00	; 0
;background.c:23: void fadeout(){
;	---------------------------------
; Function fadeout
; ---------------------------------
_fadeout::
;background.c:24: wait_vbl_done();	
	call	_wait_vbl_done
;background.c:25: for(i = 0; i != 4; i++){
	ld	hl, #_i
	ld	(hl), #0x00
00107$:
;background.c:26: switch(i){
	ld	a, (#_i)
	or	a, a
	jr	Z, 00101$
	ld	a, (#_i)
	dec	a
	jr	Z, 00102$
	ld	a, (#_i)
	sub	a, #0x02
	jr	Z, 00103$
	ld	a, (#_i)
	sub	a, #0x03
	jr	Z, 00104$
	jr	00105$
;background.c:27: case 0:
00101$:
;background.c:28: BGP_REG = 0xE4;
	ld	a, #0xe4
	ldh	(_BGP_REG + 0), a
;background.c:29: break;
	jr	00105$
;background.c:30: case 1:
00102$:
;background.c:31: BGP_REG = 0xF9;
	ld	a, #0xf9
	ldh	(_BGP_REG + 0), a
;background.c:32: break;
	jr	00105$
;background.c:33: case 2:
00103$:
;background.c:34: BGP_REG = 0xFE;
	ld	a, #0xfe
	ldh	(_BGP_REG + 0), a
;background.c:35: break;
	jr	00105$
;background.c:36: case 3:
00104$:
;background.c:37: BGP_REG = 0xFF;
	ld	a, #0xff
	ldh	(_BGP_REG + 0), a
;background.c:39: }
00105$:
;background.c:40: delay(100);
	ld	de, #0x0064
	call	_delay
;background.c:25: for(i = 0; i != 4; i++){
	ld	hl, #_i
	inc	(hl)
	ld	a, (hl)
	sub	a, #0x04
	jr	NZ, 00107$
;background.c:42: }
	ret
;main.c:27: void checkInput() {
;	---------------------------------
; Function checkInput
; ---------------------------------
_checkInput::
;main.c:28: switch (joypad()) {
	call	_joypad
;main.c:31: move_sprite(0, x, y);
	ld	hl, #_y
	ld	c, (hl)
;main.c:28: switch (joypad()) {
	cp	a, #0x01
	jr	Z, 00101$
	cp	a, #0x02
	jr	Z, 00102$
;main.c:31: move_sprite(0, x, y);
	ld	hl, #_x
	ld	c, (hl)
;main.c:28: switch (joypad()) {
	cp	a, #0x04
	jr	Z, 00103$
	cp	a, #0x08
	jr	Z, 00104$
	ret
;main.c:29: case J_RIGHT:
00101$:
;main.c:30: x++;
	ld	hl, #_x
	inc	(hl)
;main.c:31: move_sprite(0, x, y);
	ld	e, (hl)
;/opt/gbdk/include/gb/gb.h:1675: OAM_item_t * itm = &shadow_OAM[nb];
	ld	hl, #_shadow_OAM
;/opt/gbdk/include/gb/gb.h:1676: itm->y=y, itm->x=x;
	ld	a, c
	ld	(hl+), a
	ld	(hl), e
;main.c:32: break;
	ret
;main.c:33: case J_LEFT:
00102$:
;main.c:34: x--;
	ld	hl, #_x
	dec	(hl)
;main.c:35: move_sprite(0, x, y);
	ld	e, (hl)
;/opt/gbdk/include/gb/gb.h:1675: OAM_item_t * itm = &shadow_OAM[nb];
	ld	hl, #_shadow_OAM
;/opt/gbdk/include/gb/gb.h:1676: itm->y=y, itm->x=x;
	ld	a, c
	ld	(hl+), a
	ld	(hl), e
;main.c:36: break;
	ret
;main.c:37: case J_UP:
00103$:
;main.c:38: y--;
	ld	hl, #_y
	dec	(hl)
;main.c:39: move_sprite(0, x, y);
;/opt/gbdk/include/gb/gb.h:1675: OAM_item_t * itm = &shadow_OAM[nb];
;/opt/gbdk/include/gb/gb.h:1676: itm->y=y, itm->x=x;
	ld	a, (hl)
	ld	hl, #_shadow_OAM
	ld	(hl+), a
	ld	(hl), c
;main.c:40: break;
	ret
;main.c:41: case J_DOWN:
00104$:
;main.c:42: y++;
	ld	hl, #_y
	inc	(hl)
;main.c:43: move_sprite(0, x, y);
;/opt/gbdk/include/gb/gb.h:1675: OAM_item_t * itm = &shadow_OAM[nb];
;/opt/gbdk/include/gb/gb.h:1676: itm->y=y, itm->x=x;
	ld	a, (hl)
	ld	hl, #_shadow_OAM
	ld	(hl+), a
	ld	(hl), c
;main.c:59: }
;main.c:60: }
	ret
_BackgroundData:
	.db #0x00	; 0
_RabbitSprites:
	.db #0xff	; 255
	.db #0xff	; 255
	.db #0xff	; 255
	.db #0xff	; 255
	.db #0xff	; 255
	.db #0xff	; 255
	.db #0xff	; 255
	.db #0xff	; 255
	.db #0xff	; 255
	.db #0xff	; 255
	.db #0xff	; 255
	.db #0xff	; 255
	.db #0xe0	; 224
	.db #0xff	; 255
	.db #0xe0	; 224
	.db #0xfb	; 251
	.db #0xff	; 255
	.db #0xff	; 255
	.db #0xff	; 255
	.db #0xff	; 255
	.db #0xff	; 255
	.db #0xff	; 255
	.db #0xff	; 255
	.db #0xff	; 255
	.db #0xff	; 255
	.db #0xff	; 255
	.db #0xff	; 255
	.db #0xff	; 255
	.db #0xff	; 255
	.db #0xff	; 255
	.db #0x1f	; 31
	.db #0xff	; 255
	.db #0xff	; 255
	.db #0xff	; 255
	.db #0xff	; 255
	.db #0xff	; 255
	.db #0xff	; 255
	.db #0xff	; 255
	.db #0xff	; 255
	.db #0xff	; 255
	.db #0xff	; 255
	.db #0xff	; 255
	.db #0xff	; 255
	.db #0xff	; 255
	.db #0xff	; 255
	.db #0xff	; 255
	.db #0xff	; 255
	.db #0xff	; 255
	.db #0xff	; 255
	.db #0xff	; 255
	.db #0xff	; 255
	.db #0xff	; 255
	.db #0xff	; 255
	.db #0xff	; 255
	.db #0xff	; 255
	.db #0xff	; 255
	.db #0xff	; 255
	.db #0xff	; 255
	.db #0xff	; 255
	.db #0xff	; 255
	.db #0xff	; 255
	.db #0xff	; 255
	.db #0xf8	; 248
	.db #0xff	; 255
	.db #0xff	; 255
	.db #0xff	; 255
	.db #0xff	; 255
	.db #0xff	; 255
	.db #0xff	; 255
	.db #0xff	; 255
	.db #0xff	; 255
	.db #0xff	; 255
	.db #0xff	; 255
	.db #0xff	; 255
	.db #0xfd	; 253
	.db #0xff	; 255
	.db #0x81	; 129
	.db #0xff	; 255
	.db #0x00	; 0
	.db #0xf8	; 248
	.db #0xff	; 255
	.db #0xff	; 255
	.db #0xff	; 255
	.db #0xff	; 255
	.db #0xff	; 255
	.db #0xff	; 255
	.db #0xff	; 255
	.db #0xff	; 255
	.db #0xff	; 255
	.db #0xff	; 255
	.db #0xff	; 255
	.db #0xff	; 255
	.db #0xff	; 255
	.db #0xff	; 255
	.db #0x7f	; 127
	.db #0x7f	; 127
	.db #0xe0	; 224
	.db #0xf8	; 248
	.db #0xe0	; 224
	.db #0xf8	; 248
	.db #0xe0	; 224
	.db #0xf8	; 248
	.db #0xe0	; 224
	.db #0xf8	; 248
	.db #0xf0	; 240
	.db #0xfc	; 252
	.db #0xf0	; 240
	.db #0xfc	; 252
	.db #0xf0	; 240
	.db #0xfc	; 252
	.db #0xf0	; 240
	.db #0xfc	; 252
	.db #0x01	; 1
	.db #0x1f	; 31
	.db #0x00	; 0
	.db #0x01	; 1
	.db #0x00	; 0
	.db #0x00	; 0
	.db #0x00	; 0
	.db #0x00	; 0
	.db #0x00	; 0
	.db #0x00	; 0
	.db #0x00	; 0
	.db #0x00	; 0
	.db #0x00	; 0
	.db #0x00	; 0
	.db #0x00	; 0
	.db #0x00	; 0
	.db #0xff	; 255
	.db #0xff	; 255
	.db #0x1f	; 31
	.db #0xff	; 255
	.db #0x03	; 3
	.db #0x3f	; 63
	.db #0x01	; 1
	.db #0x07	; 7
	.db #0x00	; 0
	.db #0x00	; 0
	.db #0x00	; 0
	.db #0x00	; 0
	.db #0x00	; 0
	.db #0x00	; 0
	.db #0x00	; 0
	.db #0x00	; 0
	.db #0xff	; 255
	.db #0xff	; 255
	.db #0xff	; 255
	.db #0xff	; 255
	.db #0xff	; 255
	.db #0xff	; 255
	.db #0xff	; 255
	.db #0xff	; 255
	.db #0x7f	; 127
	.db #0xff	; 255
	.db #0x1f	; 31
	.db #0x3f	; 63
	.db #0x0f	; 15
	.db #0x0f	; 15
	.db #0x03	; 3
	.db #0x03	; 3
	.db #0xff	; 255
	.db #0xff	; 255
	.db #0xff	; 255
	.db #0xff	; 255
	.db #0xff	; 255
	.db #0xff	; 255
	.db #0xff	; 255
	.db #0xff	; 255
	.db #0xff	; 255
	.db #0xff	; 255
	.db #0xff	; 255
	.db #0xff	; 255
	.db #0xfe	; 254
	.db #0xff	; 255
	.db #0xf8	; 248
	.db #0xff	; 255
	.db #0xff	; 255
	.db #0xff	; 255
	.db #0xff	; 255
	.db #0xff	; 255
	.db #0xf8	; 248
	.db #0xff	; 255
	.db #0xf0	; 240
	.db #0xff	; 255
	.db #0xc0	; 192
	.db #0xfe	; 254
	.db #0x00	; 0
	.db #0xf8	; 248
	.db #0x00	; 0
	.db #0xe0	; 224
	.db #0x00	; 0
	.db #0x80	; 128
	.db #0xe0	; 224
	.db #0xff	; 255
	.db #0x00	; 0
	.db #0xfc	; 252
	.db #0x00	; 0
	.db #0xe0	; 224
	.db #0x00	; 0
	.db #0x00	; 0
	.db #0x00	; 0
	.db #0x00	; 0
	.db #0x00	; 0
	.db #0x00	; 0
	.db #0x00	; 0
	.db #0x00	; 0
	.db #0x00	; 0
	.db #0x00	; 0
	.db #0x00	; 0
	.db #0x80	; 128
	.db #0x00	; 0
	.db #0x00	; 0
	.db #0x00	; 0
	.db #0x00	; 0
	.db #0x00	; 0
	.db #0x00	; 0
	.db #0x00	; 0
	.db #0x00	; 0
	.db #0x00	; 0
	.db #0x00	; 0
	.db #0x00	; 0
	.db #0x00	; 0
	.db #0x00	; 0
	.db #0x00	; 0
	.db #0x7f	; 127
	.db #0x7f	; 127
	.db #0x7f	; 127
	.db #0x7f	; 127
	.db #0x7f	; 127
	.db #0x7f	; 127
	.db #0x7f	; 127
	.db #0x7f	; 127
	.db #0x3f	; 63
	.db #0x3f	; 63
	.db #0x3f	; 63
	.db #0x3f	; 63
	.db #0x3f	; 63
	.db #0x3f	; 63
	.db #0x3f	; 63
	.db #0x3f	; 63
	.db #0xf0	; 240
	.db #0xfc	; 252
	.db #0xf0	; 240
	.db #0xfc	; 252
	.db #0xf0	; 240
	.db #0xfc	; 252
	.db #0xf0	; 240
	.db #0xfc	; 252
	.db #0xf0	; 240
	.db #0xfc	; 252
	.db #0xf0	; 240
	.db #0xfc	; 252
	.db #0xf0	; 240
	.db #0xfc	; 252
	.db #0xf8	; 248
	.db #0xfe	; 254
	.db #0x00	; 0
	.db #0x00	; 0
	.db #0x00	; 0
	.db #0x00	; 0
	.db #0x00	; 0
	.db #0x00	; 0
	.db #0x00	; 0
	.db #0x00	; 0
	.db #0x00	; 0
	.db #0x00	; 0
	.db #0x00	; 0
	.db #0x00	; 0
	.db #0x00	; 0
	.db #0x00	; 0
	.db #0x00	; 0
	.db #0x00	; 0
	.db #0x01	; 1
	.db #0x01	; 1
	.db #0x00	; 0
	.db #0x00	; 0
	.db #0x00	; 0
	.db #0x00	; 0
	.db #0x00	; 0
	.db #0x00	; 0
	.db #0x00	; 0
	.db #0x00	; 0
	.db #0x00	; 0
	.db #0x00	; 0
	.db #0x00	; 0
	.db #0x00	; 0
	.db #0x00	; 0
	.db #0x00	; 0
	.db #0xff	; 255
	.db #0xff	; 255
	.db #0x7f	; 127
	.db #0x7f	; 127
	.db #0x3f	; 63
	.db #0x3f	; 63
	.db #0x1f	; 31
	.db #0x1f	; 31
	.db #0x0f	; 15
	.db #0x0f	; 15
	.db #0x07	; 7
	.db #0x07	; 7
	.db #0x03	; 3
	.db #0x03	; 3
	.db #0x01	; 1
	.db #0x01	; 1
	.db #0xff	; 255
	.db #0xff	; 255
	.db #0xff	; 255
	.db #0xff	; 255
	.db #0xff	; 255
	.db #0xff	; 255
	.db #0xff	; 255
	.db #0xff	; 255
	.db #0xfe	; 254
	.db #0xff	; 255
	.db #0xfe	; 254
	.db #0xff	; 255
	.db #0xfc	; 252
	.db #0xff	; 255
	.db #0xf8	; 248
	.db #0xff	; 255
	.db #0xf0	; 240
	.db #0xff	; 255
	.db #0xe0	; 224
	.db #0xfe	; 254
	.db #0xc0	; 192
	.db #0xf8	; 248
	.db #0x80	; 128
	.db #0xf0	; 240
	.db #0x00	; 0
	.db #0xe0	; 224
	.db #0x00	; 0
	.db #0xc0	; 192
	.db #0x00	; 0
	.db #0x80	; 128
	.db #0x00	; 0
	.db #0x00	; 0
	.db #0x3f	; 63
	.db #0x3f	; 63
	.db #0x3f	; 63
	.db #0x3f	; 63
	.db #0x3f	; 63
	.db #0x3f	; 63
	.db #0x7f	; 127
	.db #0x7f	; 127
	.db #0x7f	; 127
	.db #0x7f	; 127
	.db #0x7f	; 127
	.db #0x7f	; 127
	.db #0x7f	; 127
	.db #0x7f	; 127
	.db #0x7f	; 127
	.db #0x7f	; 127
	.db #0xf8	; 248
	.db #0xfe	; 254
	.db #0xf8	; 248
	.db #0xfe	; 254
	.db #0xf8	; 248
	.db #0xf8	; 248
	.db #0xf8	; 248
	.db #0xf8	; 248
	.db #0xf8	; 248
	.db #0xf8	; 248
	.db #0xf8	; 248
	.db #0xf8	; 248
	.db #0xf8	; 248
	.db #0xf8	; 248
	.db #0xf9	; 249
	.db #0xf9	; 249
	.db #0x00	; 0
	.db #0x00	; 0
	.db #0x00	; 0
	.db #0x00	; 0
	.db #0x00	; 0
	.db #0x00	; 0
	.db #0x00	; 0
	.db #0x00	; 0
	.db #0x00	; 0
	.db #0x00	; 0
	.db #0x00	; 0
	.db #0x00	; 0
	.db #0x00	; 0
	.db #0x00	; 0
	.db #0x02	; 2
	.db #0x02	; 2
	.db #0x00	; 0
	.db #0x00	; 0
	.db #0x00	; 0
	.db #0x00	; 0
	.db #0x00	; 0
	.db #0x00	; 0
	.db #0x00	; 0
	.db #0x00	; 0
	.db #0x00	; 0
	.db #0x00	; 0
	.db #0x00	; 0
	.db #0x00	; 0
	.db #0x00	; 0
	.db #0x00	; 0
	.db #0x84	; 132
	.db #0x84	; 132
	.db #0x00	; 0
	.db #0x00	; 0
	.db #0x00	; 0
	.db #0x00	; 0
	.db #0x00	; 0
	.db #0x00	; 0
	.db #0x00	; 0
	.db #0x00	; 0
	.db #0x00	; 0
	.db #0x00	; 0
	.db #0x00	; 0
	.db #0x00	; 0
	.db #0x00	; 0
	.db #0x00	; 0
	.db #0xfd	; 253
	.db #0xfc	; 252
	.db #0x00	; 0
	.db #0x00	; 0
	.db #0x00	; 0
	.db #0x00	; 0
	.db #0x00	; 0
	.db #0x00	; 0
	.db #0x00	; 0
	.db #0x00	; 0
	.db #0x00	; 0
	.db #0x00	; 0
	.db #0x00	; 0
	.db #0x00	; 0
	.db #0x00	; 0
	.db #0x00	; 0
	.db #0xfe	; 254
	.db #0xfc	; 252
	.db #0xff	; 255
	.db #0xff	; 255
	.db #0x00	; 0
	.db #0x00	; 0
	.db #0x00	; 0
	.db #0x00	; 0
	.db #0x00	; 0
	.db #0x00	; 0
	.db #0x00	; 0
	.db #0x00	; 0
	.db #0x00	; 0
	.db #0x00	; 0
	.db #0x00	; 0
	.db #0x00	; 0
	.db #0xfc	; 252
	.db #0xfc	; 252
	.db #0xff	; 255
	.db #0xff	; 255
	.db #0x00	; 0
	.db #0x00	; 0
	.db #0x00	; 0
	.db #0x00	; 0
	.db #0x00	; 0
	.db #0x00	; 0
	.db #0x00	; 0
	.db #0x00	; 0
	.db #0x00	; 0
	.db #0x00	; 0
	.db #0x00	; 0
	.db #0x00	; 0
	.db #0x00	; 0
	.db #0x00	; 0
	.db #0xff	; 255
	.db #0xff	; 255
	.db #0x00	; 0
	.db #0x00	; 0
	.db #0x00	; 0
	.db #0x00	; 0
	.db #0x00	; 0
	.db #0x00	; 0
	.db #0x00	; 0
	.db #0x00	; 0
	.db #0x00	; 0
	.db #0x00	; 0
	.db #0x00	; 0
	.db #0x00	; 0
	.db #0xf8	; 248
	.db #0xf8	; 248
	.db #0xff	; 255
	.db #0xff	; 255
	.db #0x00	; 0
	.db #0x00	; 0
	.db #0x00	; 0
	.db #0x00	; 0
	.db #0x00	; 0
	.db #0x00	; 0
	.db #0x00	; 0
	.db #0x00	; 0
	.db #0x00	; 0
	.db #0x00	; 0
	.db #0x00	; 0
	.db #0x00	; 0
	.db #0x30	; 48	'0'
	.db #0x30	; 48	'0'
	.db #0xff	; 255
	.db #0xff	; 255
	.db #0x00	; 0
	.db #0x00	; 0
	.db #0x00	; 0
	.db #0x00	; 0
	.db #0x00	; 0
	.db #0x00	; 0
	.db #0x00	; 0
	.db #0x00	; 0
	.db #0x00	; 0
	.db #0x00	; 0
	.db #0x00	; 0
	.db #0x00	; 0
	.db #0xfd	; 253
	.db #0xfc	; 252
	.db #0xff	; 255
	.db #0xff	; 255
	.db #0x00	; 0
	.db #0x00	; 0
	.db #0x00	; 0
	.db #0x00	; 0
	.db #0x00	; 0
	.db #0x00	; 0
	.db #0x00	; 0
	.db #0x00	; 0
	.db #0x00	; 0
	.db #0x00	; 0
	.db #0x00	; 0
	.db #0x00	; 0
	.db #0xfe	; 254
	.db #0xfc	; 252
	.db #0xf0	; 240
	.db #0xfe	; 254
	.db #0x00	; 0
	.db #0x00	; 0
	.db #0x00	; 0
	.db #0x00	; 0
	.db #0x00	; 0
	.db #0x00	; 0
	.db #0x00	; 0
	.db #0x00	; 0
	.db #0x00	; 0
	.db #0x00	; 0
	.db #0x00	; 0
	.db #0x00	; 0
	.db #0x78	; 120	'x'
	.db #0x38	; 56	'8'
	.db #0x00	; 0
	.db #0x00	; 0
	.db #0x00	; 0
	.db #0x00	; 0
	.db #0x00	; 0
	.db #0x00	; 0
	.db #0x00	; 0
	.db #0x00	; 0
	.db #0x00	; 0
	.db #0x00	; 0
	.db #0x00	; 0
	.db #0x00	; 0
	.db #0x00	; 0
	.db #0x00	; 0
	.db #0x30	; 48	'0'
	.db #0x30	; 48	'0'
	.db #0x00	; 0
	.db #0x00	; 0
	.db #0x00	; 0
	.db #0x00	; 0
	.db #0x00	; 0
	.db #0x00	; 0
	.db #0x00	; 0
	.db #0x00	; 0
	.db #0x00	; 0
	.db #0x00	; 0
	.db #0x00	; 0
	.db #0x00	; 0
	.db #0x00	; 0
	.db #0x00	; 0
	.db #0xcc	; 204
	.db #0x84	; 132
	.db #0x00	; 0
	.db #0x00	; 0
	.db #0x00	; 0
	.db #0x00	; 0
	.db #0x00	; 0
	.db #0x00	; 0
	.db #0x00	; 0
	.db #0x00	; 0
	.db #0x00	; 0
	.db #0x00	; 0
	.db #0x00	; 0
	.db #0x00	; 0
	.db #0x00	; 0
	.db #0x00	; 0
	.db #0xfc	; 252
	.db #0xfc	; 252
	.db #0x00	; 0
	.db #0x00	; 0
	.db #0x00	; 0
	.db #0x00	; 0
	.db #0x00	; 0
	.db #0x00	; 0
	.db #0x00	; 0
	.db #0x00	; 0
	.db #0x00	; 0
	.db #0x00	; 0
	.db #0x00	; 0
	.db #0x00	; 0
	.db #0x00	; 0
	.db #0x00	; 0
	.db #0x78	; 120	'x'
	.db #0x78	; 120	'x'
	.db #0x7f	; 127
	.db #0x7f	; 127
	.db #0x7f	; 127
	.db #0x7f	; 127
	.db #0x7f	; 127
	.db #0x7f	; 127
	.db #0x7f	; 127
	.db #0x7f	; 127
	.db #0x7f	; 127
	.db #0x7f	; 127
	.db #0x7f	; 127
	.db #0x7f	; 127
	.db #0x7f	; 127
	.db #0x7f	; 127
	.db #0x7f	; 127
	.db #0x7f	; 127
	.db #0xf9	; 249
	.db #0xf9	; 249
	.db #0xf9	; 249
	.db #0xf8	; 248
	.db #0xf9	; 249
	.db #0xf8	; 248
	.db #0xf8	; 248
	.db #0xf8	; 248
	.db #0xf8	; 248
	.db #0xf8	; 248
	.db #0xf8	; 248
	.db #0xf8	; 248
	.db #0xf8	; 248
	.db #0xf8	; 248
	.db #0xf8	; 248
	.db #0xf8	; 248
	.db #0x86	; 134
	.db #0x02	; 2
	.db #0x86	; 134
	.db #0x00	; 0
	.db #0xb6	; 182
	.db #0xb4	; 180
	.db #0xb4	; 180
	.db #0xb4	; 180
	.db #0xb4	; 180
	.db #0xa4	; 164
	.db #0xfc	; 252
	.db #0x84	; 132
	.db #0xcc	; 204
	.db #0xcc	; 204
	.db #0xcc	; 204
	.db #0xcc	; 204
	.db #0x84	; 132
	.db #0x84	; 132
	.db #0x84	; 132
	.db #0x84	; 132
	.db #0x84	; 132
	.db #0x84	; 132
	.db #0xfc	; 252
	.db #0xfc	; 252
	.db #0xcc	; 204
	.db #0x84	; 132
	.db #0x84	; 132
	.db #0x84	; 132
	.db #0x84	; 132
	.db #0x84	; 132
	.db #0x84	; 132
	.db #0x84	; 132
	.db #0x30	; 48	'0'
	.db #0x00	; 0
	.db #0x30	; 48	'0'
	.db #0x00	; 0
	.db #0x30	; 48	'0'
	.db #0x00	; 0
	.db #0x30	; 48	'0'
	.db #0x00	; 0
	.db #0x30	; 48	'0'
	.db #0x00	; 0
	.db #0x30	; 48	'0'
	.db #0x00	; 0
	.db #0x30	; 48	'0'
	.db #0x00	; 0
	.db #0xfc	; 252
	.db #0xfc	; 252
	.db #0x30	; 48	'0'
	.db #0x00	; 0
	.db #0x30	; 48	'0'
	.db #0x00	; 0
	.db #0x30	; 48	'0'
	.db #0x00	; 0
	.db #0x30	; 48	'0'
	.db #0x00	; 0
	.db #0x30	; 48	'0'
	.db #0x00	; 0
	.db #0x30	; 48	'0'
	.db #0x00	; 0
	.db #0x30	; 48	'0'
	.db #0x00	; 0
	.db #0x30	; 48	'0'
	.db #0x00	; 0
	.db #0x80	; 128
	.db #0x80	; 128
	.db #0x80	; 128
	.db #0x80	; 128
	.db #0x80	; 128
	.db #0x80	; 128
	.db #0xfc	; 252
	.db #0xf8	; 248
	.db #0x80	; 128
	.db #0x80	; 128
	.db #0x80	; 128
	.db #0x80	; 128
	.db #0x80	; 128
	.db #0x80	; 128
	.db #0xfc	; 252
	.db #0xfc	; 252
	.db #0x8c	; 140
	.db #0x84	; 132
	.db #0x84	; 132
	.db #0x84	; 132
	.db #0x8c	; 140
	.db #0x84	; 132
	.db #0xf8	; 248
	.db #0xf8	; 248
	.db #0x98	; 152
	.db #0x90	; 144
	.db #0x88	; 136
	.db #0x88	; 136
	.db #0x8d	; 141
	.db #0x8c	; 140
	.db #0x87	; 135
	.db #0x85	; 133
	.db #0x30	; 48	'0'
	.db #0x30	; 48	'0'
	.db #0x78	; 120	'x'
	.db #0x30	; 48	'0'
	.db #0x78	; 120	'x'
	.db #0x48	; 72	'H'
	.db #0xcc	; 204
	.db #0x48	; 72	'H'
	.db #0xcc	; 204
	.db #0xcc	; 204
	.db #0xfc	; 252
	.db #0xfc	; 252
	.db #0x86	; 134
	.db #0x84	; 132
	.db #0x86	; 134
	.db #0x02	; 2
	.db #0x8c	; 140
	.db #0x8c	; 140
	.db #0x8c	; 140
	.db #0x84	; 132
	.db #0x8c	; 140
	.db #0x88	; 136
	.db #0xf8	; 248
	.db #0xf8	; 248
	.db #0x8c	; 140
	.db #0x84	; 132
	.db #0x86	; 134
	.db #0x84	; 132
	.db #0x84	; 132
	.db #0x84	; 132
	.db #0xfc	; 252
	.db #0xf8	; 248
	.db #0xcc	; 204
	.db #0x44	; 68	'D'
	.db #0x80	; 128
	.db #0x80	; 128
	.db #0x80	; 128
	.db #0x80	; 128
	.db #0x9c	; 156
	.db #0x9c	; 156
	.db #0x84	; 132
	.db #0x84	; 132
	.db #0xc4	; 196
	.db #0x84	; 132
	.db #0xc5	; 197
	.db #0x44	; 68	'D'
	.db #0x7d	; 125
	.db #0x39	; 57	'9'
	.db #0xcc	; 204
	.db #0xcc	; 204
	.db #0xcc	; 204
	.db #0xcc	; 204
	.db #0xfc	; 252
	.db #0xa4	; 164
	.db #0xb4	; 180
	.db #0xb4	; 180
	.db #0xb4	; 180
	.db #0xb4	; 180
	.db #0x84	; 132
	.db #0x84	; 132
	.db #0x84	; 132
	.db #0x84	; 132
	.db #0x84	; 132
	.db #0x84	; 132
	.db #0xcc	; 204
	.db #0x84	; 132
	.db #0x80	; 128
	.db #0x80	; 128
	.db #0xe0	; 224
	.db #0xc0	; 192
	.db #0x78	; 120	'x'
	.db #0x38	; 56	'8'
	.db #0x0c	; 12
	.db #0x04	; 4
	.db #0x84	; 132
	.db #0x04	; 4
	.db #0xcc	; 204
	.db #0x84	; 132
	.db #0x78	; 120	'x'
	.db #0x78	; 120	'x'
	.db #0xf8	; 248
	.db #0xf8	; 248
	.db #0xf8	; 248
	.db #0xf8	; 248
	.db #0xf8	; 248
	.db #0xf8	; 248
	.db #0xf8	; 248
	.db #0xf8	; 248
	.db #0xf8	; 248
	.db #0xf8	; 248
	.db #0xff	; 255
	.db #0xff	; 255
	.db #0xff	; 255
	.db #0xff	; 255
	.db #0xff	; 255
	.db #0xff	; 255
	.db #0x00	; 0
	.db #0x00	; 0
	.db #0x00	; 0
	.db #0x00	; 0
	.db #0x00	; 0
	.db #0x00	; 0
	.db #0x00	; 0
	.db #0x00	; 0
	.db #0x00	; 0
	.db #0x00	; 0
	.db #0xf8	; 248
	.db #0xfe	; 254
	.db #0xf8	; 248
	.db #0xfe	; 254
	.db #0xfc	; 252
	.db #0xfe	; 254
	.db #0x00	; 0
	.db #0x00	; 0
	.db #0x00	; 0
	.db #0x00	; 0
	.db #0x00	; 0
	.db #0x00	; 0
	.db #0x00	; 0
	.db #0x00	; 0
	.db #0x00	; 0
	.db #0x00	; 0
	.db #0x07	; 7
	.db #0x07	; 7
	.db #0x07	; 7
	.db #0x07	; 7
	.db #0x03	; 3
	.db #0x03	; 3
	.db #0x00	; 0
	.db #0x00	; 0
	.db #0x00	; 0
	.db #0x00	; 0
	.db #0x00	; 0
	.db #0x00	; 0
	.db #0x00	; 0
	.db #0x00	; 0
	.db #0x00	; 0
	.db #0x00	; 0
	.db #0xff	; 255
	.db #0xff	; 255
	.db #0xff	; 255
	.db #0xff	; 255
	.db #0xff	; 255
	.db #0xff	; 255
	.db #0x00	; 0
	.db #0x00	; 0
	.db #0x00	; 0
	.db #0x00	; 0
	.db #0x00	; 0
	.db #0x00	; 0
	.db #0x00	; 0
	.db #0x00	; 0
	.db #0x00	; 0
	.db #0x00	; 0
	.db #0xfc	; 252
	.db #0xff	; 255
	.db #0xfc	; 252
	.db #0xff	; 255
	.db #0xf8	; 248
	.db #0xff	; 255
	.db #0x00	; 0
	.db #0x00	; 0
	.db #0x00	; 0
	.db #0x00	; 0
	.db #0x00	; 0
	.db #0x00	; 0
	.db #0x00	; 0
	.db #0x00	; 0
	.db #0x00	; 0
	.db #0x00	; 0
	.db #0x00	; 0
	.db #0x80	; 128
	.db #0x00	; 0
	.db #0x00	; 0
	.db #0x00	; 0
	.db #0x00	; 0
	.db #0x00	; 0
	.db #0x00	; 0
	.db #0x00	; 0
	.db #0x00	; 0
	.db #0x00	; 0
	.db #0x00	; 0
	.db #0x00	; 0
	.db #0x00	; 0
	.db #0x00	; 0
	.db #0x00	; 0
	.db #0x7f	; 127
	.db #0x7f	; 127
	.db #0xff	; 255
	.db #0xff	; 255
	.db #0xff	; 255
	.db #0xff	; 255
	.db #0x7f	; 127
	.db #0x7f	; 127
	.db #0x7f	; 127
	.db #0x7f	; 127
	.db #0x7f	; 127
	.db #0x7f	; 127
	.db #0x7f	; 127
	.db #0x7f	; 127
	.db #0x7f	; 127
	.db #0x7f	; 127
	.db #0xff	; 255
	.db #0xff	; 255
	.db #0xff	; 255
	.db #0xff	; 255
	.db #0xff	; 255
	.db #0xff	; 255
	.db #0xfe	; 254
	.db #0xff	; 255
	.db #0xfe	; 254
	.db #0xff	; 255
	.db #0xff	; 255
	.db #0xff	; 255
	.db #0xff	; 255
	.db #0xff	; 255
	.db #0xff	; 255
	.db #0xff	; 255
	.db #0xff	; 255
	.db #0xff	; 255
	.db #0xff	; 255
	.db #0xff	; 255
	.db #0xff	; 255
	.db #0xff	; 255
	.db #0x00	; 0
	.db #0xc0	; 192
	.db #0x00	; 0
	.db #0xe0	; 224
	.db #0x00	; 0
	.db #0xe0	; 224
	.db #0x00	; 0
	.db #0xf0	; 240
	.db #0x80	; 128
	.db #0xf8	; 248
	.db #0xc0	; 192
	.db #0xf8	; 248
	.db #0xe0	; 224
	.db #0xfc	; 252
	.db #0xe0	; 224
	.db #0xfe	; 254
	.db #0xff	; 255
	.db #0xff	; 255
	.db #0x7f	; 127
	.db #0x7f	; 127
	.db #0x7f	; 127
	.db #0x7f	; 127
	.db #0x3f	; 63
	.db #0x3f	; 63
	.db #0x3f	; 63
	.db #0x3f	; 63
	.db #0x3f	; 63
	.db #0x3f	; 63
	.db #0x1f	; 31
	.db #0x1f	; 31
	.db #0x1f	; 31
	.db #0x1f	; 31
	.db #0xf8	; 248
	.db #0xff	; 255
	.db #0xf0	; 240
	.db #0xff	; 255
	.db #0xf0	; 240
	.db #0xff	; 255
	.db #0xf0	; 240
	.db #0xff	; 255
	.db #0xe0	; 224
	.db #0xff	; 255
	.db #0xe0	; 224
	.db #0xff	; 255
	.db #0xc0	; 192
	.db #0xfe	; 254
	.db #0xc0	; 192
	.db #0xfe	; 254
	.db #0x00	; 0
	.db #0x80	; 128
	.db #0x00	; 0
	.db #0x80	; 128
	.db #0x00	; 0
	.db #0x80	; 128
	.db #0x00	; 0
	.db #0x00	; 0
	.db #0x00	; 0
	.db #0x00	; 0
	.db #0x00	; 0
	.db #0x00	; 0
	.db #0x00	; 0
	.db #0x00	; 0
	.db #0x00	; 0
	.db #0x00	; 0
	.db #0x00	; 0
	.db #0x00	; 0
	.db #0x00	; 0
	.db #0x00	; 0
	.db #0x00	; 0
	.db #0x00	; 0
	.db #0x01	; 1
	.db #0x01	; 1
	.db #0x01	; 1
	.db #0x01	; 1
	.db #0x03	; 3
	.db #0x03	; 3
	.db #0x07	; 7
	.db #0x07	; 7
	.db #0x07	; 7
	.db #0x07	; 7
	.db #0x7f	; 127
	.db #0x7f	; 127
	.db #0x7f	; 127
	.db #0x7f	; 127
	.db #0xff	; 255
	.db #0xff	; 255
	.db #0xff	; 255
	.db #0xff	; 255
	.db #0xff	; 255
	.db #0xff	; 255
	.db #0xff	; 255
	.db #0xff	; 255
	.db #0xff	; 255
	.db #0xff	; 255
	.db #0xff	; 255
	.db #0xff	; 255
	.db #0xf8	; 248
	.db #0xff	; 255
	.db #0xfc	; 252
	.db #0xff	; 255
	.db #0xfe	; 254
	.db #0xff	; 255
	.db #0xfe	; 254
	.db #0xff	; 255
	.db #0xff	; 255
	.db #0xff	; 255
	.db #0xff	; 255
	.db #0xff	; 255
	.db #0xff	; 255
	.db #0xff	; 255
	.db #0xff	; 255
	.db #0xff	; 255
	.db #0x00	; 0
	.db #0x00	; 0
	.db #0x00	; 0
	.db #0xc0	; 192
	.db #0x00	; 0
	.db #0xc0	; 192
	.db #0x00	; 0
	.db #0xe0	; 224
	.db #0x00	; 0
	.db #0xf0	; 240
	.db #0x00	; 0
	.db #0xf0	; 240
	.db #0x00	; 0
	.db #0xf0	; 240
	.db #0x80	; 128
	.db #0xf8	; 248
	.db #0x0f	; 15
	.db #0x0f	; 15
	.db #0x03	; 3
	.db #0x03	; 3
	.db #0x03	; 3
	.db #0x03	; 3
	.db #0x03	; 3
	.db #0x03	; 3
	.db #0x01	; 1
	.db #0x01	; 1
	.db #0x00	; 0
	.db #0x01	; 1
	.db #0x00	; 0
	.db #0x03	; 3
	.db #0x00	; 0
	.db #0x02	; 2
	.db #0xff	; 255
	.db #0xff	; 255
	.db #0xff	; 255
	.db #0xff	; 255
	.db #0xff	; 255
	.db #0xff	; 255
	.db #0xf8	; 248
	.db #0xff	; 255
	.db #0x00	; 0
	.db #0xff	; 255
	.db #0x00	; 0
	.db #0xfe	; 254
	.db #0x00	; 0
	.db #0xc0	; 192
	.db #0x00	; 0
	.db #0x00	; 0
	.db #0xff	; 255
	.db #0xff	; 255
	.db #0xff	; 255
	.db #0xff	; 255
	.db #0xff	; 255
	.db #0xff	; 255
	.db #0x00	; 0
	.db #0xff	; 255
	.db #0x00	; 0
	.db #0xf0	; 240
	.db #0x00	; 0
	.db #0x00	; 0
	.db #0x00	; 0
	.db #0x00	; 0
	.db #0x00	; 0
	.db #0x00	; 0
	.db #0xff	; 255
	.db #0xff	; 255
	.db #0xff	; 255
	.db #0xff	; 255
	.db #0xff	; 255
	.db #0xff	; 255
	.db #0x00	; 0
	.db #0xff	; 255
	.db #0x00	; 0
	.db #0x00	; 0
	.db #0x00	; 0
	.db #0x00	; 0
	.db #0x00	; 0
	.db #0x00	; 0
	.db #0x00	; 0
	.db #0x00	; 0
	.db #0xff	; 255
	.db #0xff	; 255
	.db #0xff	; 255
	.db #0xff	; 255
	.db #0xff	; 255
	.db #0xff	; 255
	.db #0x7f	; 127
	.db #0xff	; 255
	.db #0x1f	; 31
	.db #0x3f	; 63
	.db #0x03	; 3
	.db #0x03	; 3
	.db #0x00	; 0
	.db #0x00	; 0
	.db #0x00	; 0
	.db #0x00	; 0
	.db #0xc0	; 192
	.db #0xfc	; 252
	.db #0xc0	; 192
	.db #0xfe	; 254
	.db #0xc0	; 192
	.db #0xfe	; 254
	.db #0xc0	; 192
	.db #0xfc	; 252
	.db #0x00	; 0
	.db #0xfc	; 252
	.db #0x00	; 0
	.db #0xfc	; 252
	.db #0x00	; 0
	.db #0xf0	; 240
	.db #0x00	; 0
	.db #0x30	; 48	'0'
	.db #0x00	; 0
	.db #0x00	; 0
	.db #0x00	; 0
	.db #0x00	; 0
	.db #0x00	; 0
	.db #0x00	; 0
	.db #0x00	; 0
	.db #0x00	; 0
	.db #0x00	; 0
	.db #0x00	; 0
	.db #0x00	; 0
	.db #0x00	; 0
	.db #0x00	; 0
	.db #0x00	; 0
	.db #0x01	; 1
	.db #0x01	; 1
	.db #0x0f	; 15
	.db #0x0f	; 15
	.db #0x07	; 7
	.db #0x07	; 7
	.db #0x0f	; 15
	.db #0x0f	; 15
	.db #0x1f	; 31
	.db #0x1f	; 31
	.db #0x3f	; 63
	.db #0x3f	; 63
	.db #0x3f	; 63
	.db #0x3f	; 63
	.db #0xff	; 255
	.db #0xff	; 255
	.db #0xff	; 255
	.db #0xff	; 255
	.db #0xc0	; 192
	.db #0xfc	; 252
	.db #0xe0	; 224
	.db #0xfc	; 252
	.db #0xf0	; 240
	.db #0xfe	; 254
	.db #0xf8	; 248
	.db #0xff	; 255
	.db #0xfc	; 252
	.db #0xff	; 255
	.db #0xfe	; 254
	.db #0xff	; 255
	.db #0xff	; 255
	.db #0xff	; 255
	.db #0xff	; 255
	.db #0xff	; 255
	.db #0x00	; 0
	.db #0x00	; 0
	.db #0x00	; 0
	.db #0x00	; 0
	.db #0x00	; 0
	.db #0x00	; 0
	.db #0x00	; 0
	.db #0x00	; 0
	.db #0x00	; 0
	.db #0x80	; 128
	.db #0x00	; 0
	.db #0xc0	; 192
	.db #0x00	; 0
	.db #0xe0	; 224
	.db #0x80	; 128
	.db #0xc0	; 192
	.db #0x00	; 0
	.db #0x00	; 0
	.db #0x00	; 0
	.db #0x00	; 0
	.db #0x00	; 0
	.db #0x00	; 0
	.db #0x00	; 0
	.db #0x00	; 0
	.db #0x00	; 0
	.db #0x00	; 0
	.db #0x00	; 0
	.db #0x00	; 0
	.db #0x00	; 0
	.db #0x00	; 0
	.db #0x03	; 3
	.db #0x03	; 3
	.db #0x03	; 3
	.db #0x03	; 3
	.db #0x07	; 7
	.db #0x07	; 7
	.db #0x0f	; 15
	.db #0x0f	; 15
	.db #0x1f	; 31
	.db #0x1f	; 31
	.db #0x3f	; 63
	.db #0x3f	; 63
	.db #0x3f	; 63
	.db #0x3f	; 63
	.db #0x7f	; 127
	.db #0x7f	; 127
	.db #0xff	; 255
	.db #0xff	; 255
	.db #0xe0	; 224
	.db #0xe0	; 224
	.db #0xf0	; 240
	.db #0xf0	; 240
	.db #0xf8	; 248
	.db #0xf8	; 248
	.db #0xfc	; 252
	.db #0xfc	; 252
	.db #0xfc	; 252
	.db #0xff	; 255
	.db #0xf8	; 248
	.db #0xff	; 255
	.db #0xf0	; 240
	.db #0xfe	; 254
	.db #0xe0	; 224
	.db #0xfc	; 252
	.db #0x0f	; 15
	.db #0x0f	; 15
	.db #0x1f	; 31
	.db #0x1f	; 31
	.db #0x3f	; 63
	.db #0x3f	; 63
	.db #0x7f	; 127
	.db #0x7f	; 127
	.db #0x7f	; 127
	.db #0x7f	; 127
	.db #0x7f	; 127
	.db #0x7f	; 127
	.db #0x3f	; 63
	.db #0x3f	; 63
	.db #0x3f	; 63
	.db #0x3f	; 63
	.db #0xff	; 255
	.db #0xff	; 255
	.db #0xff	; 255
	.db #0xff	; 255
	.db #0xff	; 255
	.db #0xff	; 255
	.db #0xff	; 255
	.db #0xff	; 255
	.db #0xff	; 255
	.db #0xff	; 255
	.db #0xff	; 255
	.db #0xff	; 255
	.db #0xff	; 255
	.db #0xff	; 255
	.db #0xfe	; 254
	.db #0xff	; 255
	.db #0xe0	; 224
	.db #0xfc	; 252
	.db #0xc0	; 192
	.db #0xf8	; 248
	.db #0xc0	; 192
	.db #0xf0	; 240
	.db #0x80	; 128
	.db #0xf0	; 240
	.db #0x80	; 128
	.db #0xe0	; 224
	.db #0x00	; 0
	.db #0xe0	; 224
	.db #0x00	; 0
	.db #0xe0	; 224
	.db #0x00	; 0
	.db #0xc0	; 192
	.db #0x1f	; 31
	.db #0x1f	; 31
	.db #0x0f	; 15
	.db #0x0f	; 15
	.db #0x07	; 7
	.db #0x07	; 7
	.db #0x07	; 7
	.db #0x07	; 7
	.db #0x03	; 3
	.db #0x03	; 3
	.db #0x03	; 3
	.db #0x03	; 3
	.db #0x01	; 1
	.db #0x01	; 1
	.db #0x01	; 1
	.db #0x01	; 1
	.db #0xfe	; 254
	.db #0xff	; 255
	.db #0xfc	; 252
	.db #0xff	; 255
	.db #0xfc	; 252
	.db #0xff	; 255
	.db #0xfc	; 252
	.db #0xff	; 255
	.db #0xf8	; 248
	.db #0xff	; 255
	.db #0xf8	; 248
	.db #0xfe	; 254
	.db #0xf8	; 248
	.db #0xfe	; 254
	.db #0xf8	; 248
	.db #0xfe	; 254
	.db #0x00	; 0
	.db #0xc0	; 192
	.db #0x00	; 0
	.db #0x80	; 128
	.db #0x00	; 0
	.db #0x80	; 128
	.db #0x03	; 3
	.db #0x03	; 3
	.db #0x03	; 3
	.db #0x03	; 3
	.db #0x07	; 7
	.db #0x07	; 7
	.db #0x07	; 7
	.db #0x07	; 7
	.db #0x03	; 3
	.db #0x03	; 3
	.db #0x1f	; 31
	.db #0x1f	; 31
	.db #0x7f	; 127
	.db #0x7f	; 127
	.db #0xff	; 255
	.db #0xff	; 255
	.db #0xff	; 255
	.db #0xff	; 255
	.db #0xff	; 255
	.db #0xff	; 255
	.db #0xff	; 255
	.db #0xff	; 255
	.db #0xff	; 255
	.db #0xff	; 255
	.db #0xff	; 255
	.db #0xff	; 255
	.db #0xe0	; 224
	.db #0xe0	; 224
	.db #0xf8	; 248
	.db #0xf8	; 248
	.db #0xf8	; 248
	.db #0xfe	; 254
	.db #0xfc	; 252
	.db #0xfe	; 254
	.db #0xfe	; 254
	.db #0xff	; 255
	.db #0xfe	; 254
	.db #0xff	; 255
	.db #0xff	; 255
	.db #0xff	; 255
	.db #0xff	; 255
	.db #0xff	; 255
	.db #0x00	; 0
	.db #0x00	; 0
	.db #0x00	; 0
	.db #0x00	; 0
	.db #0x00	; 0
	.db #0x00	; 0
	.db #0x00	; 0
	.db #0x00	; 0
	.db #0x00	; 0
	.db #0x00	; 0
	.db #0x00	; 0
	.db #0x80	; 128
	.db #0x00	; 0
	.db #0x80	; 128
	.db #0x80	; 128
	.db #0xc0	; 192
	.db #0x00	; 0
	.db #0x00	; 0
	.db #0x00	; 0
	.db #0x00	; 0
	.db #0x00	; 0
	.db #0x00	; 0
	.db #0x00	; 0
	.db #0x00	; 0
	.db #0x00	; 0
	.db #0x00	; 0
	.db #0x01	; 1
	.db #0x01	; 1
	.db #0x03	; 3
	.db #0x03	; 3
	.db #0x07	; 7
	.db #0x07	; 7
	.db #0x03	; 3
	.db #0x03	; 3
	.db #0x0f	; 15
	.db #0x0f	; 15
	.db #0x3f	; 63
	.db #0x3f	; 63
	.db #0x7f	; 127
	.db #0x7f	; 127
	.db #0xff	; 255
	.db #0xff	; 255
	.db #0xff	; 255
	.db #0xff	; 255
	.db #0xff	; 255
	.db #0xff	; 255
	.db #0xff	; 255
	.db #0xff	; 255
	.db #0xfe	; 254
	.db #0xfe	; 254
	.db #0xfe	; 254
	.db #0xff	; 255
	.db #0xfe	; 254
	.db #0xff	; 255
	.db #0xff	; 255
	.db #0xff	; 255
	.db #0xff	; 255
	.db #0xff	; 255
	.db #0xff	; 255
	.db #0xff	; 255
	.db #0xff	; 255
	.db #0xff	; 255
	.db #0xfe	; 254
	.db #0xff	; 255
	.db #0x00	; 0
	.db #0x00	; 0
	.db #0x00	; 0
	.db #0x80	; 128
	.db #0x00	; 0
	.db #0x80	; 128
	.db #0x00	; 0
	.db #0x80	; 128
	.db #0x00	; 0
	.db #0xc0	; 192
	.db #0x00	; 0
	.db #0xc0	; 192
	.db #0x00	; 0
	.db #0xc0	; 192
	.db #0x00	; 0
	.db #0xc0	; 192
	.db #0xf8	; 248
	.db #0xfe	; 254
	.db #0xf0	; 240
	.db #0xfe	; 254
	.db #0xf0	; 240
	.db #0xfc	; 252
	.db #0xf0	; 240
	.db #0xfc	; 252
	.db #0xf0	; 240
	.db #0xfc	; 252
	.db #0xf8	; 248
	.db #0xfc	; 252
	.db #0xf8	; 248
	.db #0xfe	; 254
	.db #0xf8	; 248
	.db #0xfe	; 254
	.db #0x03	; 3
	.db #0x03	; 3
	.db #0x03	; 3
	.db #0x03	; 3
	.db #0x03	; 3
	.db #0x03	; 3
	.db #0x01	; 1
	.db #0x01	; 1
	.db #0x00	; 0
	.db #0x00	; 0
	.db #0x00	; 0
	.db #0x00	; 0
	.db #0x00	; 0
	.db #0x00	; 0
	.db #0x00	; 0
	.db #0x00	; 0
	.db #0xff	; 255
	.db #0xff	; 255
	.db #0xff	; 255
	.db #0xff	; 255
	.db #0xff	; 255
	.db #0xff	; 255
	.db #0xff	; 255
	.db #0xff	; 255
	.db #0x7f	; 127
	.db #0xff	; 255
	.db #0x0f	; 15
	.db #0x3f	; 63
	.db #0x01	; 1
	.db #0x0f	; 15
	.db #0x00	; 0
	.db #0x01	; 1
	.db #0xff	; 255
	.db #0xff	; 255
	.db #0xff	; 255
	.db #0xff	; 255
	.db #0xff	; 255
	.db #0xff	; 255
	.db #0xff	; 255
	.db #0xff	; 255
	.db #0xff	; 255
	.db #0xff	; 255
	.db #0xff	; 255
	.db #0xff	; 255
	.db #0xff	; 255
	.db #0xff	; 255
	.db #0x7f	; 127
	.db #0xff	; 255
	.db #0x80	; 128
	.db #0xc0	; 192
	.db #0x80	; 128
	.db #0xe0	; 224
	.db #0x80	; 128
	.db #0xe0	; 224
	.db #0x80	; 128
	.db #0xe0	; 224
	.db #0xc0	; 192
	.db #0xf0	; 240
	.db #0xc0	; 192
	.db #0xf0	; 240
	.db #0xe0	; 224
	.db #0xf0	; 240
	.db #0xe0	; 224
	.db #0xf8	; 248
	.db #0x07	; 7
	.db #0x07	; 7
	.db #0x0f	; 15
	.db #0x0f	; 15
	.db #0x1f	; 31
	.db #0x1f	; 31
	.db #0x3f	; 63
	.db #0x3f	; 63
	.db #0x3f	; 63
	.db #0x3f	; 63
	.db #0x3f	; 63
	.db #0x3f	; 63
	.db #0x7f	; 127
	.db #0x7f	; 127
	.db #0x7f	; 127
	.db #0x7f	; 127
	.db #0xff	; 255
	.db #0xff	; 255
	.db #0xff	; 255
	.db #0xff	; 255
	.db #0xff	; 255
	.db #0xff	; 255
	.db #0xff	; 255
	.db #0xff	; 255
	.db #0xff	; 255
	.db #0xff	; 255
	.db #0xfc	; 252
	.db #0xff	; 255
	.db #0xf0	; 240
	.db #0xff	; 255
	.db #0x80	; 128
	.db #0xfe	; 254
	.db #0xfc	; 252
	.db #0xff	; 255
	.db #0xfc	; 252
	.db #0xff	; 255
	.db #0xf0	; 240
	.db #0xff	; 255
	.db #0xe0	; 224
	.db #0xfe	; 254
	.db #0x80	; 128
	.db #0xfc	; 252
	.db #0x00	; 0
	.db #0xf0	; 240
	.db #0x00	; 0
	.db #0x80	; 128
	.db #0x00	; 0
	.db #0x00	; 0
	.db #0x00	; 0
	.db #0x80	; 128
	.db #0x00	; 0
	.db #0x80	; 128
	.db #0x00	; 0
	.db #0x00	; 0
	.db #0x00	; 0
	.db #0x00	; 0
	.db #0x00	; 0
	.db #0x00	; 0
	.db #0x00	; 0
	.db #0x00	; 0
	.db #0x01	; 1
	.db #0x01	; 1
	.db #0x01	; 1
	.db #0x01	; 1
	.db #0xfe	; 254
	.db #0xfe	; 254
	.db #0xfe	; 254
	.db #0xff	; 255
	.db #0xfe	; 254
	.db #0xff	; 255
	.db #0xfe	; 254
	.db #0xff	; 255
	.db #0xfe	; 254
	.db #0xff	; 255
	.db #0xfe	; 254
	.db #0xff	; 255
	.db #0xfe	; 254
	.db #0xff	; 255
	.db #0xff	; 255
	.db #0xff	; 255
	.db #0x00	; 0
	.db #0x00	; 0
	.db #0x00	; 0
	.db #0x00	; 0
	.db #0x00	; 0
	.db #0x80	; 128
	.db #0x00	; 0
	.db #0x80	; 128
	.db #0x00	; 0
	.db #0x80	; 128
	.db #0x00	; 0
	.db #0xc0	; 192
	.db #0x00	; 0
	.db #0x80	; 128
	.db #0x00	; 0
	.db #0x80	; 128
	.db #0x07	; 7
	.db #0x3f	; 63
	.db #0x00	; 0
	.db #0x03	; 3
	.db #0x00	; 0
	.db #0x00	; 0
	.db #0x00	; 0
	.db #0x00	; 0
	.db #0x00	; 0
	.db #0x00	; 0
	.db #0x00	; 0
	.db #0x00	; 0
	.db #0x00	; 0
	.db #0x00	; 0
	.db #0x00	; 0
	.db #0x00	; 0
	.db #0xf8	; 248
	.db #0xf8	; 248
	.db #0xf8	; 248
	.db #0xfe	; 254
	.db #0x3c	; 60
	.db #0x7e	; 126
	.db #0x0c	; 12
	.db #0x1e	; 30
	.db #0x04	; 4
	.db #0x07	; 7
	.db #0x00	; 0
	.db #0x03	; 3
	.db #0x00	; 0
	.db #0x00	; 0
	.db #0x00	; 0
	.db #0x00	; 0
	.db #0x7e	; 126
	.db #0x7f	; 127
	.db #0x30	; 48	'0'
	.db #0x3f	; 63
	.db #0x40	; 64
	.db #0x7f	; 127
	.db #0x00	; 0
	.db #0x78	; 120	'x'
	.db #0x00	; 0
	.db #0x70	; 112	'p'
	.db #0x00	; 0
	.db #0xc0	; 192
	.db #0x00	; 0
	.db #0x00	; 0
	.db #0x00	; 0
	.db #0x00	; 0
	.db #0x00	; 0
	.db #0xf0	; 240
	.db #0x00	; 0
	.db #0xc0	; 192
	.db #0x00	; 0
	.db #0x00	; 0
	.db #0x00	; 0
	.db #0x00	; 0
	.db #0x00	; 0
	.db #0x00	; 0
	.db #0x00	; 0
	.db #0x00	; 0
	.db #0x00	; 0
	.db #0x00	; 0
	.db #0x00	; 0
	.db #0x00	; 0
	.db #0x01	; 1
	.db #0x01	; 1
	.db #0x00	; 0
	.db #0x00	; 0
	.db #0x00	; 0
	.db #0x00	; 0
	.db #0x00	; 0
	.db #0x00	; 0
	.db #0x01	; 1
	.db #0x01	; 1
	.db #0x01	; 1
	.db #0x01	; 1
	.db #0x07	; 7
	.db #0x07	; 7
	.db #0x07	; 7
	.db #0x07	; 7
	.db #0x00	; 0
	.db #0xc0	; 192
	.db #0x80	; 128
	.db #0xc0	; 192
	.db #0xc0	; 192
	.db #0xe0	; 224
	.db #0xc0	; 192
	.db #0xf0	; 240
	.db #0xe0	; 224
	.db #0xf0	; 240
	.db #0xf0	; 240
	.db #0xf8	; 248
	.db #0xfc	; 252
	.db #0xfc	; 252
	.db #0xfe	; 254
	.db #0xfe	; 254
	.db #0x00	; 0
	.db #0x00	; 0
	.db #0x00	; 0
	.db #0x00	; 0
	.db #0x00	; 0
	.db #0x00	; 0
	.db #0x00	; 0
	.db #0x00	; 0
	.db #0x00	; 0
	.db #0x00	; 0
	.db #0x00	; 0
	.db #0x00	; 0
	.db #0x00	; 0
	.db #0x00	; 0
	.db #0x00	; 0
	.db #0x80	; 128
	.db #0x0f	; 15
	.db #0x0f	; 15
	.db #0x1f	; 31
	.db #0x1f	; 31
	.db #0x1f	; 31
	.db #0x1f	; 31
	.db #0x3f	; 63
	.db #0x3f	; 63
	.db #0x3f	; 63
	.db #0x3f	; 63
	.db #0x7f	; 127
	.db #0x7f	; 127
	.db #0xff	; 255
	.db #0xff	; 255
	.db #0xff	; 255
	.db #0xff	; 255
	.db #0x00	; 0
	.db #0x00	; 0
	.db #0x80	; 128
	.db #0x80	; 128
	.db #0xe0	; 224
	.db #0xe0	; 224
	.db #0xf0	; 240
	.db #0xf0	; 240
	.db #0xf8	; 248
	.db #0xf8	; 248
	.db #0xfe	; 254
	.db #0xfe	; 254
	.db #0xff	; 255
	.db #0xff	; 255
	.db #0xff	; 255
	.db #0xff	; 255
	.db #0x00	; 0
	.db #0x00	; 0
	.db #0x00	; 0
	.db #0x00	; 0
	.db #0x00	; 0
	.db #0x00	; 0
	.db #0x00	; 0
	.db #0x00	; 0
	.db #0x00	; 0
	.db #0x00	; 0
	.db #0x00	; 0
	.db #0x00	; 0
	.db #0x00	; 0
	.db #0x00	; 0
	.db #0xc0	; 192
	.db #0xc0	; 192
	.db #0x00	; 0
	.db #0x00	; 0
	.db #0x00	; 0
	.db #0x00	; 0
	.db #0x00	; 0
	.db #0x00	; 0
	.db #0x3f	; 63
	.db #0x3f	; 63
	.db #0x0f	; 15
	.db #0x0f	; 15
	.db #0x07	; 7
	.db #0x07	; 7
	.db #0x07	; 7
	.db #0x07	; 7
	.db #0x03	; 3
	.db #0x03	; 3
	.db #0x00	; 0
	.db #0x80	; 128
	.db #0x00	; 0
	.db #0x00	; 0
	.db #0x00	; 0
	.db #0x00	; 0
	.db #0x00	; 0
	.db #0xf0	; 240
	.db #0x00	; 0
	.db #0xc0	; 192
	.db #0x00	; 0
	.db #0xc0	; 192
	.db #0x00	; 0
	.db #0x80	; 128
	.db #0x00	; 0
	.db #0x00	; 0
	.db #0x00	; 0
	.db #0x00	; 0
	.db #0x00	; 0
	.db #0x00	; 0
	.db #0x00	; 0
	.db #0x00	; 0
	.db #0x00	; 0
	.db #0x00	; 0
	.db #0x00	; 0
	.db #0x00	; 0
	.db #0x00	; 0
	.db #0x00	; 0
	.db #0x03	; 3
	.db #0x03	; 3
	.db #0x0f	; 15
	.db #0x0f	; 15
	.db #0x01	; 1
	.db #0x01	; 1
	.db #0x03	; 3
	.db #0x03	; 3
	.db #0x07	; 7
	.db #0x07	; 7
	.db #0x1f	; 31
	.db #0x1f	; 31
	.db #0x3f	; 63
	.db #0x3f	; 63
	.db #0xff	; 255
	.db #0xff	; 255
	.db #0xff	; 255
	.db #0xff	; 255
	.db #0xff	; 255
	.db #0xff	; 255
	.db #0xf0	; 240
	.db #0xf0	; 240
	.db #0xff	; 255
	.db #0xff	; 255
	.db #0xff	; 255
	.db #0xff	; 255
	.db #0xff	; 255
	.db #0xff	; 255
	.db #0xff	; 255
	.db #0xff	; 255
	.db #0xff	; 255
	.db #0xff	; 255
	.db #0xff	; 255
	.db #0xff	; 255
	.db #0xff	; 255
	.db #0xff	; 255
	.db #0x00	; 0
	.db #0x00	; 0
	.db #0x00	; 0
	.db #0x00	; 0
	.db #0xf0	; 240
	.db #0xf0	; 240
	.db #0xff	; 255
	.db #0xff	; 255
	.db #0xff	; 255
	.db #0xff	; 255
	.db #0xff	; 255
	.db #0xff	; 255
	.db #0xff	; 255
	.db #0xff	; 255
	.db #0xff	; 255
	.db #0xff	; 255
	.db #0x00	; 0
	.db #0x00	; 0
	.db #0x00	; 0
	.db #0x00	; 0
	.db #0x00	; 0
	.db #0x00	; 0
	.db #0x00	; 0
	.db #0x00	; 0
	.db #0xff	; 255
	.db #0xff	; 255
	.db #0xff	; 255
	.db #0xff	; 255
	.db #0xff	; 255
	.db #0xff	; 255
	.db #0xff	; 255
	.db #0xff	; 255
	.db #0x01	; 1
	.db #0x01	; 1
	.db #0x00	; 0
	.db #0x00	; 0
	.db #0x00	; 0
	.db #0x00	; 0
	.db #0x00	; 0
	.db #0x00	; 0
	.db #0xc0	; 192
	.db #0xc0	; 192
	.db #0xff	; 255
	.db #0xff	; 255
	.db #0xff	; 255
	.db #0xff	; 255
	.db #0xff	; 255
	.db #0xff	; 255
	.db #0x00	; 0
	.db #0x80	; 128
	.db #0x00	; 0
	.db #0x80	; 128
	.db #0x00	; 0
	.db #0x00	; 0
	.db #0x00	; 0
	.db #0x00	; 0
	.db #0x01	; 1
	.db #0x01	; 1
	.db #0xff	; 255
	.db #0xff	; 255
	.db #0xff	; 255
	.db #0xff	; 255
	.db #0xff	; 255
	.db #0xff	; 255
	.db #0x00	; 0
	.db #0x00	; 0
	.db #0x00	; 0
	.db #0x00	; 0
	.db #0x07	; 7
	.db #0x07	; 7
	.db #0xff	; 255
	.db #0xff	; 255
	.db #0xff	; 255
	.db #0xff	; 255
	.db #0xff	; 255
	.db #0xff	; 255
	.db #0xff	; 255
	.db #0xff	; 255
	.db #0xff	; 255
	.db #0xff	; 255
	.db #0x1f	; 31
	.db #0x1f	; 31
	.db #0xff	; 255
	.db #0xff	; 255
	.db #0xff	; 255
	.db #0xff	; 255
	.db #0xff	; 255
	.db #0xff	; 255
	.db #0xff	; 255
	.db #0xff	; 255
	.db #0xff	; 255
	.db #0xff	; 255
	.db #0xff	; 255
	.db #0xff	; 255
	.db #0xff	; 255
	.db #0xff	; 255
_RabbitMap:
	.db #0x00	; 0
	.db #0x01	; 1
	.db #0x02	; 2
	.db #0x02	; 2
	.db #0x02	; 2
	.db #0x02	; 2
	.db #0x02	; 2
	.db #0x02	; 2
	.db #0x02	; 2
	.db #0x02	; 2
	.db #0x02	; 2
	.db #0x02	; 2
	.db #0x02	; 2
	.db #0x02	; 2
	.db #0x02	; 2
	.db #0x02	; 2
	.db #0x02	; 2
	.db #0x03	; 3
	.db #0x04	; 4
	.db #0x05	; 5
	.db #0x06	; 6
	.db #0x07	; 7
	.db #0x08	; 8
	.db #0x09	; 9
	.db #0x02	; 2
	.db #0x02	; 2
	.db #0x02	; 2
	.db #0x02	; 2
	.db #0x02	; 2
	.db #0x02	; 2
	.db #0x02	; 2
	.db #0x02	; 2
	.db #0x02	; 2
	.db #0x02	; 2
	.db #0x02	; 2
	.db #0x0a	; 10
	.db #0x0b	; 11
	.db #0x0c	; 12
	.db #0x0d	; 13
	.db #0x0e	; 14
	.db #0x0f	; 15
	.db #0x10	; 16
	.db #0x10	; 16
	.db #0x11	; 17
	.db #0x12	; 18
	.db #0x02	; 2
	.db #0x02	; 2
	.db #0x02	; 2
	.db #0x02	; 2
	.db #0x02	; 2
	.db #0x02	; 2
	.db #0x02	; 2
	.db #0x02	; 2
	.db #0x02	; 2
	.db #0x13	; 19
	.db #0x14	; 20
	.db #0x10	; 16
	.db #0x10	; 16
	.db #0x10	; 16
	.db #0x15	; 21
	.db #0x16	; 22
	.db #0x17	; 23
	.db #0x18	; 24
	.db #0x19	; 25
	.db #0x1a	; 26
	.db #0x1b	; 27
	.db #0x1c	; 28
	.db #0x1d	; 29
	.db #0x1e	; 30
	.db #0x1d	; 29
	.db #0x1d	; 29
	.db #0x1f	; 31
	.db #0x20	; 32
	.db #0x1c	; 28
	.db #0x21	; 33
	.db #0x22	; 34
	.db #0x23	; 35
	.db #0x24	; 36
	.db #0x25	; 37
	.db #0x26	; 38
	.db #0x27	; 39
	.db #0x28	; 40
	.db #0x29	; 41
	.db #0x2a	; 42
	.db #0x2b	; 43
	.db #0x2c	; 44
	.db #0x10	; 16
	.db #0x2d	; 45
	.db #0x2e	; 46
	.db #0x2f	; 47
	.db #0x2f	; 47
	.db #0x2a	; 42
	.db #0x2b	; 43
	.db #0x10	; 16
	.db #0x30	; 48	'0'
	.db #0x2e	; 46
	.db #0x31	; 49	'1'
	.db #0x2c	; 44
	.db #0x32	; 50	'2'
	.db #0x26	; 38
	.db #0x33	; 51	'3'
	.db #0x34	; 52	'4'
	.db #0x10	; 16
	.db #0x10	; 16
	.db #0x10	; 16
	.db #0x10	; 16
	.db #0x35	; 53	'5'
	.db #0x36	; 54	'6'
	.db #0x36	; 54	'6'
	.db #0x36	; 54	'6'
	.db #0x36	; 54	'6'
	.db #0x36	; 54	'6'
	.db #0x37	; 55	'7'
	.db #0x38	; 56	'8'
	.db #0x10	; 16
	.db #0x10	; 16
	.db #0x10	; 16
	.db #0x10	; 16
	.db #0x39	; 57	'9'
	.db #0x3a	; 58
	.db #0x02	; 2
	.db #0x3b	; 59
	.db #0x3c	; 60
	.db #0x10	; 16
	.db #0x10	; 16
	.db #0x10	; 16
	.db #0x10	; 16
	.db #0x3d	; 61
	.db #0x02	; 2
	.db #0x02	; 2
	.db #0x02	; 2
	.db #0x02	; 2
	.db #0x3e	; 62
	.db #0x3f	; 63
	.db #0x10	; 16
	.db #0x10	; 16
	.db #0x10	; 16
	.db #0x40	; 64
	.db #0x41	; 65	'A'
	.db #0x02	; 2
	.db #0x02	; 2
	.db #0x02	; 2
	.db #0x42	; 66	'B'
	.db #0x43	; 67	'C'
	.db #0x10	; 16
	.db #0x10	; 16
	.db #0x10	; 16
	.db #0x44	; 68	'D'
	.db #0x45	; 69	'E'
	.db #0x46	; 70	'F'
	.db #0x47	; 71	'G'
	.db #0x48	; 72	'H'
	.db #0x49	; 73	'I'
	.db #0x10	; 16
	.db #0x10	; 16
	.db #0x10	; 16
	.db #0x4a	; 74	'J'
	.db #0x4b	; 75	'K'
	.db #0x02	; 2
	.db #0x02	; 2
	.db #0x02	; 2
	.db #0x02	; 2
	.db #0x02	; 2
	.db #0x4c	; 76	'L'
	.db #0x4d	; 77	'M'
	.db #0x10	; 16
	.db #0x10	; 16
	.db #0x10	; 16
	.db #0x10	; 16
	.db #0x10	; 16
	.db #0x10	; 16
	.db #0x10	; 16
	.db #0x10	; 16
	.db #0x10	; 16
	.db #0x10	; 16
	.db #0x4e	; 78	'N'
	.db #0x4f	; 79	'O'
	.db #0x02	; 2
	.db #0x02	; 2
	.db #0x02	; 2
	.db #0x02	; 2
	.db #0x02	; 2
	.db #0x02	; 2
	.db #0x02	; 2
	.db #0x50	; 80	'P'
	.db #0x10	; 16
	.db #0x10	; 16
	.db #0x10	; 16
	.db #0x10	; 16
	.db #0x10	; 16
	.db #0x10	; 16
	.db #0x10	; 16
	.db #0x10	; 16
	.db #0x10	; 16
	.db #0x10	; 16
	.db #0x51	; 81	'Q'
	.db #0x02	; 2
	.db #0x02	; 2
	.db #0x02	; 2
	.db #0x02	; 2
	.db #0x02	; 2
	.db #0x02	; 2
	.db #0x02	; 2
	.db #0x52	; 82	'R'
	.db #0x53	; 83	'S'
	.db #0x10	; 16
	.db #0x10	; 16
	.db #0x10	; 16
	.db #0x10	; 16
	.db #0x10	; 16
	.db #0x10	; 16
	.db #0x10	; 16
	.db #0x10	; 16
	.db #0x10	; 16
	.db #0x10	; 16
	.db #0x54	; 84	'T'
	.db #0x02	; 2
	.db #0x02	; 2
	.db #0x02	; 2
	.db #0x02	; 2
	.db #0x02	; 2
	.db #0x02	; 2
	.db #0x02	; 2
	.db #0x55	; 85	'U'
	.db #0x56	; 86	'V'
	.db #0x57	; 87	'W'
	.db #0x58	; 88	'X'
	.db #0x59	; 89	'Y'
	.db #0x10	; 16
	.db #0x10	; 16
	.db #0x10	; 16
	.db #0x10	; 16
	.db #0x5a	; 90	'Z'
	.db #0x5b	; 91
	.db #0x5c	; 92
	.db #0x5d	; 93
	.db #0x02	; 2
	.db #0x02	; 2
	.db #0x02	; 2
	.db #0x02	; 2
	.db #0x02	; 2
	.db #0x02	; 2
	.db #0x02	; 2
	.db #0x5e	; 94
	.db #0x5f	; 95
	.db #0x60	; 96
	.db #0x61	; 97	'a'
	.db #0x62	; 98	'b'
	.db #0x10	; 16
	.db #0x10	; 16
	.db #0x10	; 16
	.db #0x10	; 16
	.db #0x63	; 99	'c'
	.db #0x64	; 100	'd'
	.db #0x65	; 101	'e'
	.db #0x66	; 102	'f'
	.db #0x02	; 2
	.db #0x02	; 2
	.db #0x02	; 2
	.db #0x02	; 2
	.db #0x02	; 2
	.db #0x02	; 2
	.db #0x02	; 2
	.db #0x67	; 103	'g'
	.db #0x68	; 104	'h'
	.db #0x10	; 16
	.db #0x69	; 105	'i'
	.db #0x6a	; 106	'j'
	.db #0x10	; 16
	.db #0x10	; 16
	.db #0x10	; 16
	.db #0x10	; 16
	.db #0x6b	; 107	'k'
	.db #0x6c	; 108	'l'
	.db #0x10	; 16
	.db #0x6d	; 109	'm'
	.db #0x02	; 2
	.db #0x02	; 2
	.db #0x02	; 2
	.db #0x02	; 2
	.db #0x02	; 2
	.db #0x02	; 2
	.db #0x02	; 2
	.db #0x02	; 2
	.db #0x6e	; 110	'n'
	.db #0x10	; 16
	.db #0x10	; 16
	.db #0x10	; 16
	.db #0x10	; 16
	.db #0x10	; 16
	.db #0x6f	; 111	'o'
	.db #0x10	; 16
	.db #0x10	; 16
	.db #0x10	; 16
	.db #0x10	; 16
	.db #0x70	; 112	'p'
	.db #0x02	; 2
	.db #0x02	; 2
	.db #0x02	; 2
	.db #0x02	; 2
	.db #0x02	; 2
	.db #0x02	; 2
	.db #0x02	; 2
	.db #0x02	; 2
	.db #0x02	; 2
	.db #0x71	; 113	'q'
	.db #0x72	; 114	'r'
	.db #0x10	; 16
	.db #0x10	; 16
	.db #0x73	; 115	's'
	.db #0x74	; 116	't'
	.db #0x10	; 16
	.db #0x10	; 16
	.db #0x75	; 117	'u'
	.db #0x76	; 118	'v'
	.db #0x02	; 2
	.db #0x02	; 2
	.db #0x02	; 2
	.db #0x02	; 2
	.db #0x02	; 2
	.db #0x02	; 2
	.db #0x02	; 2
	.db #0x02	; 2
	.db #0x02	; 2
	.db #0x02	; 2
	.db #0x02	; 2
	.db #0x77	; 119	'w'
	.db #0x78	; 120	'x'
	.db #0x79	; 121	'y'
	.db #0x7a	; 122	'z'
	.db #0x7b	; 123
	.db #0x79	; 121	'y'
	.db #0x7c	; 124
	.db #0x7d	; 125
	.db #0x02	; 2
	.db #0x02	; 2
	.db #0x02	; 2
	.db #0x02	; 2
	.db #0x02	; 2
	.db #0x02	; 2
	.db #0x02	; 2
	.db #0x02	; 2
	.db #0x02	; 2
	.db #0x02	; 2
	.db #0x02	; 2
	.db #0x02	; 2
	.db #0x02	; 2
	.db #0x02	; 2
	.db #0x02	; 2
	.db #0x02	; 2
	.db #0x02	; 2
	.db #0x02	; 2
	.db #0x02	; 2
	.db #0x02	; 2
	.db #0x02	; 2
	.db #0x02	; 2
	.db #0x02	; 2
	.db #0x02	; 2
	.db #0x02	; 2
	.db #0x02	; 2
_GardenSprites:
	.db #0xff	; 255
	.db #0xff	; 255
	.db #0xff	; 255
	.db #0xff	; 255
	.db #0xff	; 255
	.db #0xff	; 255
	.db #0xff	; 255
	.db #0xff	; 255
	.db #0xff	; 255
	.db #0xff	; 255
	.db #0xff	; 255
	.db #0xff	; 255
	.db #0xff	; 255
	.db #0xff	; 255
	.db #0xff	; 255
	.db #0xff	; 255
	.db #0xff	; 255
	.db #0xff	; 255
	.db #0xff	; 255
	.db #0xff	; 255
	.db #0xff	; 255
	.db #0xff	; 255
	.db #0xff	; 255
	.db #0xff	; 255
	.db #0xff	; 255
	.db #0xff	; 255
	.db #0xff	; 255
	.db #0xff	; 255
	.db #0xbf	; 191
	.db #0xff	; 255
	.db #0xbf	; 191
	.db #0xff	; 255
	.db #0xff	; 255
	.db #0xff	; 255
	.db #0xff	; 255
	.db #0xff	; 255
	.db #0xff	; 255
	.db #0xfe	; 254
	.db #0xfd	; 253
	.db #0xfe	; 254
	.db #0xfb	; 251
	.db #0xfc	; 252
	.db #0xf7	; 247
	.db #0xf8	; 248
	.db #0xef	; 239
	.db #0xf0	; 240
	.db #0xdf	; 223
	.db #0xe0	; 224
	.db #0xb7	; 183
	.db #0xef	; 239
	.db #0x97	; 151
	.db #0xef	; 239
	.db #0xbb	; 187
	.db #0x47	; 71	'G'
	.db #0xfd	; 253
	.db #0x03	; 3
	.db #0xfe	; 254
	.db #0x01	; 1
	.db #0xff	; 255
	.db #0x00	; 0
	.db #0xef	; 239
	.db #0x10	; 16
	.db #0xc3	; 195
	.db #0x3c	; 60
	.db #0xff	; 255
	.db #0xff	; 255
	.db #0xff	; 255
	.db #0xff	; 255
	.db #0xff	; 255
	.db #0xff	; 255
	.db #0xff	; 255
	.db #0xff	; 255
	.db #0x77	; 119	'w'
	.db #0xff	; 255
	.db #0xff	; 255
	.db #0x07	; 7
	.db #0xf7	; 247
	.db #0x0f	; 15
	.db #0xff	; 255
	.db #0x0f	; 15
	.db #0xff	; 255
	.db #0xff	; 255
	.db #0xff	; 255
	.db #0xff	; 255
	.db #0xff	; 255
	.db #0xff	; 255
	.db #0xff	; 255
	.db #0xff	; 255
	.db #0xff	; 255
	.db #0xff	; 255
	.db #0xff	; 255
	.db #0xff	; 255
	.db #0xf9	; 249
	.db #0xff	; 255
	.db #0xff	; 255
	.db #0x78	; 120	'x'
	.db #0xff	; 255
	.db #0xff	; 255
	.db #0xff	; 255
	.db #0xff	; 255
	.db #0xef	; 239
	.db #0xff	; 255
	.db #0xff	; 255
	.db #0xef	; 239
	.db #0xdf	; 223
	.db #0xef	; 239
	.db #0xac	; 172
	.db #0xd3	; 211
	.db #0x6b	; 107	'k'
	.db #0x9c	; 156
	.db #0xef	; 239
	.db #0x1e	; 30
	.db #0xff	; 255
	.db #0xff	; 255
	.db #0xff	; 255
	.db #0xff	; 255
	.db #0xff	; 255
	.db #0xff	; 255
	.db #0xff	; 255
	.db #0xff	; 255
	.db #0xff	; 255
	.db #0xff	; 255
	.db #0x0f	; 15
	.db #0xff	; 255
	.db #0xe9	; 233
	.db #0x17	; 23
	.db #0xff	; 255
	.db #0x00	; 0
	.db #0xff	; 255
	.db #0xff	; 255
	.db #0xff	; 255
	.db #0xff	; 255
	.db #0xff	; 255
	.db #0xff	; 255
	.db #0xff	; 255
	.db #0xff	; 255
	.db #0xfd	; 253
	.db #0xff	; 255
	.db #0xfd	; 253
	.db #0xff	; 255
	.db #0xf9	; 249
	.db #0xff	; 255
	.db #0xff	; 255
	.db #0x03	; 3
	.db #0xff	; 255
	.db #0xff	; 255
	.db #0xff	; 255
	.db #0xff	; 255
	.db #0xff	; 255
	.db #0xff	; 255
	.db #0xfb	; 251
	.db #0xff	; 255
	.db #0xff	; 255
	.db #0xf7	; 247
	.db #0xe7	; 231
	.db #0xff	; 255
	.db #0xd3	; 211
	.db #0xef	; 239
	.db #0xb5	; 181
	.db #0xcb	; 203
	.db #0xff	; 255
	.db #0xff	; 255
	.db #0xff	; 255
	.db #0xff	; 255
	.db #0xff	; 255
	.db #0xff	; 255
	.db #0xff	; 255
	.db #0xff	; 255
	.db #0xff	; 255
	.db #0xff	; 255
	.db #0xff	; 255
	.db #0xff	; 255
	.db #0xff	; 255
	.db #0xff	; 255
	.db #0xfe	; 254
	.db #0xff	; 255
	.db #0xff	; 255
	.db #0xff	; 255
	.db #0xff	; 255
	.db #0xff	; 255
	.db #0xff	; 255
	.db #0xff	; 255
	.db #0xff	; 255
	.db #0xff	; 255
	.db #0xff	; 255
	.db #0xff	; 255
	.db #0xff	; 255
	.db #0xff	; 255
	.db #0xfd	; 253
	.db #0xbe	; 190
	.db #0x87	; 135
	.db #0x78	; 120	'x'
	.db #0xff	; 255
	.db #0xff	; 255
	.db #0xfe	; 254
	.db #0xff	; 255
	.db #0xff	; 255
	.db #0xfe	; 254
	.db #0xfe	; 254
	.db #0xff	; 255
	.db #0xcf	; 207
	.db #0xff	; 255
	.db #0x77	; 119	'w'
	.db #0x8e	; 142
	.db #0xe1	; 225
	.db #0x1e	; 30
	.db #0xc1	; 193
	.db #0x3e	; 62
	.db #0xff	; 255
	.db #0xff	; 255
	.db #0xff	; 255
	.db #0xff	; 255
	.db #0xff	; 255
	.db #0xff	; 255
	.db #0xff	; 255
	.db #0xff	; 255
	.db #0xff	; 255
	.db #0xff	; 255
	.db #0xff	; 255
	.db #0xff	; 255
	.db #0x7f	; 127
	.db #0xff	; 255
	.db #0x7e	; 126
	.db #0xff	; 255
	.db #0xff	; 255
	.db #0xff	; 255
	.db #0xff	; 255
	.db #0xff	; 255
	.db #0xff	; 255
	.db #0x3f	; 63
	.db #0xdf	; 223
	.db #0xff	; 255
	.db #0xff	; 255
	.db #0xdf	; 223
	.db #0x3f	; 63
	.db #0xdf	; 223
	.db #0xef	; 239
	.db #0x1f	; 31
	.db #0xef	; 239
	.db #0x1f	; 31
	.db #0xff	; 255
	.db #0x80	; 128
	.db #0xfe	; 254
	.db #0x01	; 1
	.db #0x7b	; 123
	.db #0x87	; 135
	.db #0x73	; 115	's'
	.db #0x8f	; 143
	.db #0xb7	; 183
	.db #0xcf	; 207
	.db #0xf7	; 247
	.db #0x8f	; 143
	.db #0xff	; 255
	.db #0x87	; 135
	.db #0x6f	; 111	'o'
	.db #0x97	; 151
	.db #0xf9	; 249
	.db #0x7e	; 126
	.db #0x6d	; 109	'm'
	.db #0xfe	; 254
	.db #0xf2	; 242
	.db #0xfd	; 253
	.db #0xf9	; 249
	.db #0xff	; 255
	.db #0xff	; 255
	.db #0xff	; 255
	.db #0xf8	; 248
	.db #0xe7	; 231
	.db #0xdf	; 223
	.db #0xe0	; 224
	.db #0xbf	; 191
	.db #0xc0	; 192
	.db #0xff	; 255
	.db #0x0f	; 15
	.db #0xbe	; 190
	.db #0x7f	; 127
	.db #0xff	; 255
	.db #0xfe	; 254
	.db #0xfd	; 253
	.db #0xff	; 255
	.db #0xfd	; 253
	.db #0xfb	; 251
	.db #0x8b	; 139
	.db #0xf7	; 247
	.db #0xf7	; 247
	.db #0x0f	; 15
	.db #0xf7	; 247
	.db #0x0f	; 15
	.db #0x7f	; 127
	.db #0xf8	; 248
	.db #0xff	; 255
	.db #0xf0	; 240
	.db #0xe9	; 233
	.db #0xf6	; 246
	.db #0xff	; 255
	.db #0xf0	; 240
	.db #0xef	; 239
	.db #0xf0	; 240
	.db #0xee	; 238
	.db #0xf1	; 241
	.db #0xee	; 238
	.db #0xf1	; 241
	.db #0xfe	; 254
	.db #0xe1	; 225
	.db #0xfe	; 254
	.db #0x1f	; 31
	.db #0xfe	; 254
	.db #0x1f	; 31
	.db #0xde	; 222
	.db #0x3f	; 63
	.db #0xdf	; 223
	.db #0x3f	; 63
	.db #0xef	; 239
	.db #0x1f	; 31
	.db #0xef	; 239
	.db #0x1f	; 31
	.db #0xf2	; 242
	.db #0x0f	; 15
	.db #0xfa	; 250
	.db #0x07	; 7
	.db #0xff	; 255
	.db #0x00	; 0
	.db #0x3b	; 59
	.db #0xc4	; 196
	.db #0xf0	; 240
	.db #0x0f	; 15
	.db #0xf0	; 240
	.db #0x0f	; 15
	.db #0xf1	; 241
	.db #0x0e	; 14
	.db #0xf3	; 243
	.db #0x0c	; 12
	.db #0xff	; 255
	.db #0x00	; 0
	.db #0xfe	; 254
	.db #0x01	; 1
	.db #0xff	; 255
	.db #0x03	; 3
	.db #0xfb	; 251
	.db #0x07	; 7
	.db #0x7b	; 123
	.db #0x87	; 135
	.db #0xe3	; 227
	.db #0x1f	; 31
	.db #0xc2	; 194
	.db #0x3f	; 63
	.db #0xfb	; 251
	.db #0x04	; 4
	.db #0xfe	; 254
	.db #0x01	; 1
	.db #0x7e	; 126
	.db #0x81	; 129
	.db #0x6f	; 111	'o'
	.db #0x90	; 144
	.db #0xff	; 255
	.db #0x00	; 0
	.db #0x7f	; 127
	.db #0x80	; 128
	.db #0x38	; 56	'8'
	.db #0xc7	; 199
	.db #0x7b	; 123
	.db #0x87	; 135
	.db #0x3b	; 59
	.db #0xc7	; 199
	.db #0x3f	; 63
	.db #0xc7	; 199
	.db #0x3f	; 63
	.db #0xc7	; 199
	.db #0xf1	; 241
	.db #0x0e	; 14
	.db #0xff	; 255
	.db #0x00	; 0
	.db #0xff	; 255
	.db #0x00	; 0
	.db #0x47	; 71	'G'
	.db #0xf8	; 248
	.db #0xf7	; 247
	.db #0xf8	; 248
	.db #0xf7	; 247
	.db #0xf8	; 248
	.db #0xff	; 255
	.db #0xf0	; 240
	.db #0xef	; 239
	.db #0xf0	; 240
	.db #0xff	; 255
	.db #0x00	; 0
	.db #0xfe	; 254
	.db #0x01	; 1
	.db #0xb8	; 184
	.db #0x47	; 71	'G'
	.db #0x70	; 112	'p'
	.db #0x8f	; 143
	.db #0x73	; 115	's'
	.db #0x8c	; 140
	.db #0xfe	; 254
	.db #0x01	; 1
	.db #0xfd	; 253
	.db #0x03	; 3
	.db #0xf3	; 243
	.db #0x0f	; 15
	.db #0x47	; 71	'G'
	.db #0xb8	; 184
	.db #0x2f	; 47
	.db #0xd0	; 208
	.db #0xd7	; 215
	.db #0xe8	; 232
	.db #0xe7	; 231
	.db #0xf8	; 248
	.db #0xb1	; 177
	.db #0x7e	; 126
	.db #0xbf	; 191
	.db #0xf8	; 248
	.db #0xff	; 255
	.db #0xf8	; 248
	.db #0xff	; 255
	.db #0xf8	; 248
	.db #0xff	; 255
	.db #0x7e	; 126
	.db #0x3f	; 63
	.db #0xfc	; 252
	.db #0xbb	; 187
	.db #0x7c	; 124
	.db #0xfd	; 253
	.db #0x3e	; 62
	.db #0xdf	; 223
	.db #0x3c	; 60
	.db #0xfd	; 253
	.db #0x1e	; 30
	.db #0xed	; 237
	.db #0x1e	; 30
	.db #0xf1	; 241
	.db #0x0e	; 14
	.db #0xef	; 239
	.db #0x1f	; 31
	.db #0xff	; 255
	.db #0x1f	; 31
	.db #0xdf	; 223
	.db #0x3f	; 63
	.db #0xff	; 255
	.db #0x1f	; 31
	.db #0xff	; 255
	.db #0x1f	; 31
	.db #0xff	; 255
	.db #0x1f	; 31
	.db #0xff	; 255
	.db #0x1f	; 31
	.db #0xff	; 255
	.db #0x1f	; 31
	.db #0xff	; 255
	.db #0xff	; 255
	.db #0xff	; 255
	.db #0xff	; 255
	.db #0xff	; 255
	.db #0xff	; 255
	.db #0xff	; 255
	.db #0xff	; 255
	.db #0xff	; 255
	.db #0xff	; 255
	.db #0xfe	; 254
	.db #0xff	; 255
	.db #0xff	; 255
	.db #0xfe	; 254
	.db #0xff	; 255
	.db #0xfe	; 254
	.db #0x6f	; 111	'o'
	.db #0x97	; 151
	.db #0x6e	; 110	'n'
	.db #0x97	; 151
	.db #0x66	; 102	'f'
	.db #0x9f	; 159
	.db #0x77	; 119	'w'
	.db #0x8e	; 142
	.db #0xf2	; 242
	.db #0x0f	; 15
	.db #0xfb	; 251
	.db #0x07	; 7
	.db #0xf9	; 249
	.db #0x07	; 7
	.db #0xfc	; 252
	.db #0x03	; 3
	.db #0xbf	; 191
	.db #0xc0	; 192
	.db #0x6f	; 111	'o'
	.db #0x90	; 144
	.db #0x41	; 65	'A'
	.db #0xbe	; 190
	.db #0xbc	; 188
	.db #0x7f	; 127
	.db #0x3e	; 62
	.db #0xff	; 255
	.db #0x8e	; 142
	.db #0xff	; 255
	.db #0xfe	; 254
	.db #0xff	; 255
	.db #0x3e	; 62
	.db #0xfd	; 253
	.db #0xf7	; 247
	.db #0x0f	; 15
	.db #0xf7	; 247
	.db #0x0f	; 15
	.db #0xff	; 255
	.db #0x07	; 7
	.db #0xfb	; 251
	.db #0x07	; 7
	.db #0xfc	; 252
	.db #0x03	; 3
	.db #0x7e	; 126
	.db #0x81	; 129
	.db #0x7f	; 127
	.db #0x80	; 128
	.db #0x7f	; 127
	.db #0x80	; 128
	.db #0xfe	; 254
	.db #0xe1	; 225
	.db #0xfe	; 254
	.db #0xe1	; 225
	.db #0xdf	; 223
	.db #0xe0	; 224
	.db #0xff	; 255
	.db #0xc0	; 192
	.db #0x3f	; 63
	.db #0xc0	; 192
	.db #0x7f	; 127
	.db #0x80	; 128
	.db #0xf0	; 240
	.db #0x0f	; 15
	.db #0xf7	; 247
	.db #0x0f	; 15
	.db #0xfa	; 250
	.db #0x07	; 7
	.db #0xf8	; 248
	.db #0x07	; 7
	.db #0xf9	; 249
	.db #0x06	; 6
	.db #0xf3	; 243
	.db #0x0c	; 12
	.db #0xf4	; 244
	.db #0x0b	; 11
	.db #0x78	; 120	'x'
	.db #0x87	; 135
	.db #0x78	; 120	'x'
	.db #0x87	; 135
	.db #0xb1	; 177
	.db #0xce	; 206
	.db #0xfe	; 254
	.db #0x01	; 1
	.db #0xfd	; 253
	.db #0x03	; 3
	.db #0xfb	; 251
	.db #0x07	; 7
	.db #0xf7	; 247
	.db #0x0f	; 15
	.db #0x37	; 55	'7'
	.db #0xcf	; 207
	.db #0xf7	; 247
	.db #0x0f	; 15
	.db #0xf7	; 247
	.db #0x0f	; 15
	.db #0xf7	; 247
	.db #0x0f	; 15
	.db #0x7e	; 126
	.db #0x81	; 129
	.db #0x9e	; 158
	.db #0xe1	; 225
	.db #0xde	; 222
	.db #0xe1	; 225
	.db #0xde	; 222
	.db #0xe1	; 225
	.db #0xfc	; 252
	.db #0xc3	; 195
	.db #0xfc	; 252
	.db #0xc3	; 195
	.db #0x9c	; 156
	.db #0xe3	; 227
	.db #0xdc	; 220
	.db #0xe3	; 227
	.db #0x3f	; 63
	.db #0xc7	; 199
	.db #0x37	; 55	'7'
	.db #0xcf	; 207
	.db #0x7f	; 127
	.db #0x87	; 135
	.db #0xff	; 255
	.db #0x07	; 7
	.db #0xf7	; 247
	.db #0x0f	; 15
	.db #0x7f	; 127
	.db #0x87	; 135
	.db #0x7f	; 127
	.db #0x87	; 135
	.db #0x77	; 119	'w'
	.db #0x8f	; 143
	.db #0xef	; 239
	.db #0xf0	; 240
	.db #0xef	; 239
	.db #0xf0	; 240
	.db #0xff	; 255
	.db #0xe0	; 224
	.db #0xfd	; 253
	.db #0xe2	; 226
	.db #0xfc	; 252
	.db #0xe3	; 227
	.db #0xdc	; 220
	.db #0xe3	; 227
	.db #0xdb	; 219
	.db #0xe7	; 231
	.db #0xfb	; 251
	.db #0xc7	; 199
	.db #0xf3	; 243
	.db #0x0f	; 15
	.db #0xc7	; 199
	.db #0x3f	; 63
	.db #0xcf	; 207
	.db #0x3f	; 63
	.db #0xf7	; 247
	.db #0x0f	; 15
	.db #0xf7	; 247
	.db #0x0f	; 15
	.db #0xfb	; 251
	.db #0x07	; 7
	.db #0x7c	; 124
	.db #0x83	; 131
	.db #0xb8	; 184
	.db #0xc7	; 199
	.db #0xff	; 255
	.db #0xf8	; 248
	.db #0xff	; 255
	.db #0xf8	; 248
	.db #0xf7	; 247
	.db #0xf8	; 248
	.db #0xf7	; 247
	.db #0xf8	; 248
	.db #0xdf	; 223
	.db #0xe0	; 224
	.db #0xbf	; 191
	.db #0xc0	; 192
	.db #0x7f	; 127
	.db #0x80	; 128
	.db #0xff	; 255
	.db #0x00	; 0
	.db #0xf1	; 241
	.db #0x0e	; 14
	.db #0xf1	; 241
	.db #0x0e	; 14
	.db #0xf9	; 249
	.db #0x06	; 6
	.db #0xbd	; 189
	.db #0x42	; 66	'B'
	.db #0x9f	; 159
	.db #0x60	; 96
	.db #0x8f	; 143
	.db #0x70	; 112	'p'
	.db #0xb7	; 183
	.db #0x78	; 120	'x'
	.db #0xbb	; 187
	.db #0x7c	; 124
	.db #0xff	; 255
	.db #0x1f	; 31
	.db #0xff	; 255
	.db #0x1f	; 31
	.db #0xff	; 255
	.db #0x1f	; 31
	.db #0xff	; 255
	.db #0x1f	; 31
	.db #0xff	; 255
	.db #0x1f	; 31
	.db #0xff	; 255
	.db #0x1f	; 31
	.db #0xff	; 255
	.db #0x1f	; 31
	.db #0xff	; 255
	.db #0x1f	; 31
	.db #0xff	; 255
	.db #0xfe	; 254
	.db #0xfe	; 254
	.db #0xff	; 255
	.db #0xff	; 255
	.db #0xff	; 255
	.db #0xff	; 255
	.db #0xff	; 255
	.db #0xff	; 255
	.db #0xff	; 255
	.db #0xff	; 255
	.db #0xff	; 255
	.db #0xff	; 255
	.db #0xff	; 255
	.db #0xff	; 255
	.db #0xff	; 255
	.db #0xdf	; 223
	.db #0x20	; 32
	.db #0xdf	; 223
	.db #0x20	; 32
	.db #0x8f	; 143
	.db #0xf0	; 240
	.db #0xdb	; 219
	.db #0xfc	; 252
	.db #0xde	; 222
	.db #0xff	; 255
	.db #0xff	; 255
	.db #0xff	; 255
	.db #0xff	; 255
	.db #0xff	; 255
	.db #0xff	; 255
	.db #0xff	; 255
	.db #0x88	; 136
	.db #0x77	; 119	'w'
	.db #0xd0	; 208
	.db #0x2f	; 47
	.db #0xf9	; 249
	.db #0x06	; 6
	.db #0xfd	; 253
	.db #0x02	; 2
	.db #0x7f	; 127
	.db #0x80	; 128
	.db #0xbf	; 191
	.db #0xc0	; 192
	.db #0xdf	; 223
	.db #0xe0	; 224
	.db #0xef	; 239
	.db #0xf0	; 240
	.db #0x7e	; 126
	.db #0x81	; 129
	.db #0xfc	; 252
	.db #0x03	; 3
	.db #0xf9	; 249
	.db #0x06	; 6
	.db #0xf9	; 249
	.db #0x06	; 6
	.db #0xf1	; 241
	.db #0x0e	; 14
	.db #0xc3	; 195
	.db #0x3c	; 60
	.db #0x87	; 135
	.db #0x78	; 120	'x'
	.db #0x87	; 135
	.db #0x78	; 120	'x'
	.db #0xef	; 239
	.db #0x1f	; 31
	.db #0xef	; 239
	.db #0x1f	; 31
	.db #0xdf	; 223
	.db #0x3f	; 63
	.db #0xdf	; 223
	.db #0x3f	; 63
	.db #0xff	; 255
	.db #0x3f	; 63
	.db #0xbf	; 191
	.db #0x7f	; 127
	.db #0x3f	; 63
	.db #0xff	; 255
	.db #0x3f	; 63
	.db #0xf7	; 247
	.db #0xb1	; 177
	.db #0xce	; 206
	.db #0xb9	; 185
	.db #0xc6	; 198
	.db #0xba	; 186
	.db #0xc5	; 197
	.db #0xba	; 186
	.db #0xc5	; 197
	.db #0xdc	; 220
	.db #0xe3	; 227
	.db #0xed	; 237
	.db #0xf3	; 243
	.db #0xe5	; 229
	.db #0xfb	; 251
	.db #0xf9	; 249
	.db #0xff	; 255
	.db #0xff	; 255
	.db #0x0f	; 15
	.db #0xef	; 239
	.db #0x1f	; 31
	.db #0xef	; 239
	.db #0x1f	; 31
	.db #0x2f	; 47
	.db #0xdf	; 223
	.db #0xdf	; 223
	.db #0xef	; 239
	.db #0xff	; 255
	.db #0xef	; 239
	.db #0xef	; 239
	.db #0xff	; 255
	.db #0xef	; 239
	.db #0xff	; 255
	.db #0xfe	; 254
	.db #0xe1	; 225
	.db #0xe6	; 230
	.db #0xf9	; 249
	.db #0xff	; 255
	.db #0xf8	; 248
	.db #0xfb	; 251
	.db #0xfc	; 252
	.db #0xfb	; 251
	.db #0xfc	; 252
	.db #0xfb	; 251
	.db #0xfc	; 252
	.db #0xfb	; 251
	.db #0xfc	; 252
	.db #0xfb	; 251
	.db #0xfc	; 252
	.db #0x77	; 119	'w'
	.db #0x8f	; 143
	.db #0x72	; 114	'r'
	.db #0x8f	; 143
	.db #0x79	; 121	'y'
	.db #0x86	; 134
	.db #0x75	; 117	'u'
	.db #0x8a	; 138
	.db #0xf7	; 247
	.db #0x08	; 8
	.db #0xff	; 255
	.db #0x00	; 0
	.db #0xfe	; 254
	.db #0x01	; 1
	.db #0xfb	; 251
	.db #0x07	; 7
	.db #0xbf	; 191
	.db #0xc3	; 195
	.db #0x7f	; 127
	.db #0x83	; 131
	.db #0xf9	; 249
	.db #0x07	; 7
	.db #0xfb	; 251
	.db #0x07	; 7
	.db #0xef	; 239
	.db #0x1f	; 31
	.db #0xbf	; 191
	.db #0x7f	; 127
	.db #0x7f	; 127
	.db #0xff	; 255
	.db #0xff	; 255
	.db #0xff	; 255
	.db #0xbf	; 191
	.db #0xc0	; 192
	.db #0xff	; 255
	.db #0xc0	; 192
	.db #0xcf	; 207
	.db #0xf0	; 240
	.db #0xcf	; 207
	.db #0xf0	; 240
	.db #0xfe	; 254
	.db #0xf1	; 241
	.db #0xfd	; 253
	.db #0xf3	; 243
	.db #0xff	; 255
	.db #0xf3	; 243
	.db #0xfb	; 251
	.db #0xf7	; 247
	.db #0xcf	; 207
	.db #0x30	; 48	'0'
	.db #0x8f	; 143
	.db #0x70	; 112	'p'
	.db #0x8f	; 143
	.db #0x70	; 112	'p'
	.db #0x6f	; 111	'o'
	.db #0xf0	; 240
	.db #0xff	; 255
	.db #0xf0	; 240
	.db #0xff	; 255
	.db #0xf0	; 240
	.db #0xf9	; 249
	.db #0xf6	; 246
	.db #0xf9	; 249
	.db #0xf6	; 246
	.db #0xfd	; 253
	.db #0x7e	; 126
	.db #0x7d	; 125
	.db #0xfe	; 254
	.db #0x7d	; 125
	.db #0xfe	; 254
	.db #0x7e	; 126
	.db #0xff	; 255
	.db #0xbf	; 191
	.db #0x7f	; 127
	.db #0xdf	; 223
	.db #0x3f	; 63
	.db #0x2f	; 47
	.db #0xdf	; 223
	.db #0xaf	; 175
	.db #0x7f	; 127
	.db #0xef	; 239
	.db #0x1f	; 31
	.db #0xef	; 239
	.db #0x1f	; 31
	.db #0xef	; 239
	.db #0x1f	; 31
	.db #0xff	; 255
	.db #0x0f	; 15
	.db #0xf7	; 247
	.db #0x0f	; 15
	.db #0x0f	; 15
	.db #0xf7	; 247
	.db #0xdf	; 223
	.db #0xf7	; 247
	.db #0xf3	; 243
	.db #0xff	; 255
	.db #0xf7	; 247
	.db #0xf8	; 248
	.db #0xf7	; 247
	.db #0xf8	; 248
	.db #0xf7	; 247
	.db #0xf8	; 248
	.db #0xf7	; 247
	.db #0xf8	; 248
	.db #0xee	; 238
	.db #0xf1	; 241
	.db #0xdc	; 220
	.db #0xe3	; 227
	.db #0xfd	; 253
	.db #0xe3	; 227
	.db #0xed	; 237
	.db #0xf3	; 243
	.db #0xc3	; 195
	.db #0x3c	; 60
	.db #0x31	; 49	'1'
	.db #0xce	; 206
	.db #0x31	; 49	'1'
	.db #0xce	; 206
	.db #0x3b	; 59
	.db #0xc7	; 199
	.db #0xcb	; 203
	.db #0xf7	; 247
	.db #0xcb	; 203
	.db #0xf7	; 247
	.db #0xfd	; 253
	.db #0xf3	; 243
	.db #0xfd	; 253
	.db #0xf3	; 243
	.db #0x9f	; 159
	.db #0x6f	; 111	'o'
	.db #0xff	; 255
	.db #0x1f	; 31
	.db #0xff	; 255
	.db #0x1f	; 31
	.db #0x5f	; 95
	.db #0xbf	; 191
	.db #0xff	; 255
	.db #0xff	; 255
	.db #0xff	; 255
	.db #0xff	; 255
	.db #0xff	; 255
	.db #0xff	; 255
	.db #0xff	; 255
	.db #0xff	; 255
	.db #0xfb	; 251
	.db #0xfd	; 253
	.db #0xfb	; 251
	.db #0xfd	; 253
	.db #0xfb	; 251
	.db #0xfd	; 253
	.db #0xff	; 255
	.db #0xfb	; 251
	.db #0xf3	; 243
	.db #0xff	; 255
	.db #0xf7	; 247
	.db #0xff	; 255
	.db #0xff	; 255
	.db #0xff	; 255
	.db #0xff	; 255
	.db #0xff	; 255
	.db #0xef	; 239
	.db #0xff	; 255
	.db #0xef	; 239
	.db #0xff	; 255
	.db #0xef	; 239
	.db #0xff	; 255
	.db #0xef	; 239
	.db #0xff	; 255
	.db #0xff	; 255
	.db #0xff	; 255
	.db #0xff	; 255
	.db #0xff	; 255
	.db #0xff	; 255
	.db #0xff	; 255
	.db #0xff	; 255
	.db #0xff	; 255
	.db #0xfe	; 254
	.db #0xf9	; 249
	.db #0xfe	; 254
	.db #0xf9	; 249
	.db #0xfe	; 254
	.db #0xf9	; 249
	.db #0xfd	; 253
	.db #0xe2	; 226
	.db #0xd8	; 216
	.db #0xe7	; 231
	.db #0x9f	; 159
	.db #0xff	; 255
	.db #0xbf	; 191
	.db #0x7f	; 127
	.db #0xff	; 255
	.db #0xff	; 255
	.db #0xf7	; 247
	.db #0x0f	; 15
	.db #0xcf	; 207
	.db #0x3f	; 63
	.db #0xcf	; 207
	.db #0x3f	; 63
	.db #0xbf	; 191
	.db #0x7f	; 127
	.db #0xff	; 255
	.db #0xff	; 255
	.db #0xff	; 255
	.db #0xff	; 255
	.db #0xff	; 255
	.db #0xff	; 255
	.db #0xff	; 255
	.db #0xff	; 255
	.db #0xc7	; 199
	.db #0xff	; 255
	.db #0xbf	; 191
	.db #0xff	; 255
	.db #0xbf	; 191
	.db #0xff	; 255
	.db #0xff	; 255
	.db #0xff	; 255
	.db #0xff	; 255
	.db #0xff	; 255
	.db #0xfe	; 254
	.db #0xff	; 255
	.db #0xfe	; 254
	.db #0xff	; 255
	.db #0xff	; 255
	.db #0xfe	; 254
	.db #0xee	; 238
	.db #0xff	; 255
	.db #0xdf	; 223
	.db #0xff	; 255
	.db #0xdf	; 223
	.db #0xff	; 255
	.db #0xff	; 255
	.db #0xff	; 255
	.db #0xff	; 255
	.db #0xff	; 255
	.db #0xff	; 255
	.db #0xff	; 255
	.db #0xff	; 255
	.db #0xff	; 255
	.db #0xff	; 255
	.db #0xff	; 255
	.db #0xb7	; 183
	.db #0x7f	; 127
	.db #0xbf	; 191
	.db #0x7f	; 127
	.db #0xbf	; 191
	.db #0x7f	; 127
	.db #0xbb	; 187
	.db #0x7f	; 127
	.db #0xff	; 255
	.db #0x9f	; 159
	.db #0xef	; 239
	.db #0xdf	; 223
	.db #0xef	; 239
	.db #0xf7	; 247
	.db #0xff	; 255
	.db #0xff	; 255
	.db #0xff	; 255
	.db #0xfb	; 251
	.db #0xff	; 255
	.db #0xfb	; 251
	.db #0xff	; 255
	.db #0xfb	; 251
	.db #0xfb	; 251
	.db #0xff	; 255
	.db #0xf7	; 247
	.db #0xff	; 255
	.db #0xff	; 255
	.db #0xff	; 255
	.db #0xff	; 255
	.db #0xff	; 255
	.db #0xff	; 255
	.db #0xff	; 255
	.db #0xed	; 237
	.db #0xf3	; 243
	.db #0xff	; 255
	.db #0xf3	; 243
	.db #0xff	; 255
	.db #0xf3	; 243
	.db #0xf5	; 245
	.db #0xfb	; 251
	.db #0xfd	; 253
	.db #0xfb	; 251
	.db #0xfd	; 253
	.db #0xfb	; 251
	.db #0xff	; 255
	.db #0xfc	; 252
	.db #0xfe	; 254
	.db #0xff	; 255
	.db #0xfe	; 254
	.db #0xf1	; 241
	.db #0xce	; 206
	.db #0xf1	; 241
	.db #0xce	; 206
	.db #0xf1	; 241
	.db #0xfe	; 254
	.db #0xc1	; 193
	.db #0xbe	; 190
	.db #0xc1	; 193
	.db #0xbf	; 191
	.db #0xc0	; 192
	.db #0xff	; 255
	.db #0x00	; 0
	.db #0x3f	; 63
	.db #0xc0	; 192
	.db #0xff	; 255
	.db #0xff	; 255
	.db #0xff	; 255
	.db #0xff	; 255
	.db #0xff	; 255
	.db #0xff	; 255
	.db #0xff	; 255
	.db #0xff	; 255
	.db #0xff	; 255
	.db #0xff	; 255
	.db #0x7f	; 127
	.db #0xff	; 255
	.db #0x9f	; 159
	.db #0x7f	; 127
	.db #0xef	; 239
	.db #0x1f	; 31
	.db #0xff	; 255
	.db #0xff	; 255
	.db #0xff	; 255
	.db #0xff	; 255
	.db #0xdf	; 223
	.db #0xff	; 255
	.db #0xff	; 255
	.db #0xdf	; 223
	.db #0xff	; 255
	.db #0xdf	; 223
	.db #0x9f	; 159
	.db #0xff	; 255
	.db #0xdf	; 223
	.db #0xbf	; 191
	.db #0xe7	; 231
	.db #0x9f	; 159
	.db #0xff	; 255
	.db #0xff	; 255
	.db #0xff	; 255
	.db #0xff	; 255
	.db #0xff	; 255
	.db #0xff	; 255
	.db #0xff	; 255
	.db #0xff	; 255
	.db #0xff	; 255
	.db #0xff	; 255
	.db #0xff	; 255
	.db #0xff	; 255
	.db #0xfb	; 251
	.db #0xff	; 255
	.db #0xff	; 255
	.db #0xf7	; 247
	.db #0xff	; 255
	.db #0xff	; 255
	.db #0xff	; 255
	.db #0xff	; 255
	.db #0xff	; 255
	.db #0xff	; 255
	.db #0xff	; 255
	.db #0xff	; 255
	.db #0xff	; 255
	.db #0xff	; 255
	.db #0xfd	; 253
	.db #0xfe	; 254
	.db #0xe7	; 231
	.db #0xf8	; 248
	.db #0xbf	; 191
	.db #0xc0	; 192
	.db #0xff	; 255
	.db #0xff	; 255
	.db #0xff	; 255
	.db #0xff	; 255
	.db #0xff	; 255
	.db #0xff	; 255
	.db #0xcf	; 207
	.db #0xff	; 255
	.db #0x77	; 119	'w'
	.db #0x8f	; 143
	.db #0xef	; 239
	.db #0x1f	; 31
	.db #0xcf	; 207
	.db #0x3c	; 60
	.db #0x7f	; 127
	.db #0x9c	; 156
	.db #0xff	; 255
	.db #0xff	; 255
	.db #0xfc	; 252
	.db #0xff	; 255
	.db #0xfa	; 250
	.db #0xfd	; 253
	.db #0xf4	; 244
	.db #0xfb	; 251
	.db #0xde	; 222
	.db #0xe1	; 225
	.db #0xbe	; 190
	.db #0xc1	; 193
	.db #0xfb	; 251
	.db #0x04	; 4
	.db #0xc1	; 193
	.db #0x3e	; 62
	.db #0xff	; 255
	.db #0xfe	; 254
	.db #0x3d	; 61
	.db #0xfe	; 254
	.db #0xfb	; 251
	.db #0xfc	; 252
	.db #0x83	; 131
	.db #0xfc	; 252
	.db #0x7f	; 127
	.db #0x80	; 128
	.db #0x7f	; 127
	.db #0x80	; 128
	.db #0xff	; 255
	.db #0x00	; 0
	.db #0x83	; 131
	.db #0x7c	; 124
	.db #0x7f	; 127
	.db #0xff	; 255
	.db #0x7f	; 127
	.db #0xff	; 255
	.db #0x37	; 55	'7'
	.db #0xff	; 255
	.db #0xf9	; 249
	.db #0x07	; 7
	.db #0xff	; 255
	.db #0x01	; 1
	.db #0xfe	; 254
	.db #0x01	; 1
	.db #0x86	; 134
	.db #0x79	; 121	'y'
	.db #0x97	; 151
	.db #0x78	; 120	'x'
	.db #0xff	; 255
	.db #0xff	; 255
	.db #0xff	; 255
	.db #0xff	; 255
	.db #0xfe	; 254
	.db #0xff	; 255
	.db #0xff	; 255
	.db #0xfe	; 254
	.db #0xff	; 255
	.db #0xfe	; 254
	.db #0xfd	; 253
	.db #0xfe	; 254
	.db #0xfd	; 253
	.db #0xfe	; 254
	.db #0xff	; 255
	.db #0xfc	; 252
	.db #0x3d	; 61
	.db #0xc2	; 194
	.db #0x78	; 120	'x'
	.db #0x87	; 135
	.db #0xf8	; 248
	.db #0x07	; 7
	.db #0xf8	; 248
	.db #0x07	; 7
	.db #0xf8	; 248
	.db #0x07	; 7
	.db #0xf0	; 240
	.db #0x0f	; 15
	.db #0xf3	; 243
	.db #0x0d	; 13
	.db #0x81	; 129
	.db #0x7f	; 127
	.db #0xef	; 239
	.db #0x1f	; 31
	.db #0xf7	; 247
	.db #0x0f	; 15
	.db #0xf8	; 248
	.db #0x07	; 7
	.db #0xbf	; 191
	.db #0x40	; 64
	.db #0xbf	; 191
	.db #0x40	; 64
	.db #0x3f	; 63
	.db #0xc0	; 192
	.db #0x1f	; 31
	.db #0xe0	; 224
	.db #0xcf	; 207
	.db #0x70	; 112	'p'
	.db #0x6f	; 111	'o'
	.db #0x97	; 151
	.db #0x6f	; 111	'o'
	.db #0x97	; 151
	.db #0x3f	; 63
	.db #0xc7	; 199
	.db #0x3f	; 63
	.db #0xc7	; 199
	.db #0x3f	; 63
	.db #0xc7	; 199
	.db #0x2f	; 47
	.db #0xd7	; 215
	.db #0x3f	; 63
	.db #0xc7	; 199
	.db #0x3f	; 63
	.db #0xc7	; 199
	.db #0xfb	; 251
	.db #0xf7	; 247
	.db #0xef	; 239
	.db #0xf3	; 243
	.db #0xfd	; 253
	.db #0xe3	; 227
	.db #0xfe	; 254
	.db #0xc1	; 193
	.db #0xfe	; 254
	.db #0xc1	; 193
	.db #0xda	; 218
	.db #0xe5	; 229
	.db #0xdf	; 223
	.db #0xe0	; 224
	.db #0xff	; 255
	.db #0xe0	; 224
	.db #0xbe	; 190
	.db #0xc1	; 193
	.db #0xb8	; 184
	.db #0xc7	; 199
	.db #0x20	; 32
	.db #0xdf	; 223
	.db #0x63	; 99	'c'
	.db #0x9c	; 156
	.db #0x63	; 99	'c'
	.db #0x9c	; 156
	.db #0x7f	; 127
	.db #0x80	; 128
	.db #0xfd	; 253
	.db #0x03	; 3
	.db #0xe3	; 227
	.db #0x1f	; 31
	.db #0x2b	; 43
	.db #0xdc	; 220
	.db #0x63	; 99	'c'
	.db #0xfc	; 252
	.db #0x7b	; 123
	.db #0xfc	; 252
	.db #0xbf	; 191
	.db #0x78	; 120	'x'
	.db #0xbf	; 191
	.db #0x78	; 120	'x'
	.db #0x19	; 25
	.db #0xfe	; 254
	.db #0xfc	; 252
	.db #0xdf	; 223
	.db #0xdf	; 223
	.db #0xef	; 239
	.db #0xdf	; 223
	.db #0x3e	; 62
	.db #0xde	; 222
	.db #0x3f	; 63
	.db #0x9f	; 159
	.db #0x7f	; 127
	.db #0xdf	; 223
	.db #0x2f	; 47
	.db #0xdf	; 223
	.db #0x2f	; 47
	.db #0xfb	; 251
	.db #0x07	; 7
	.db #0x7d	; 125
	.db #0x83	; 131
	.db #0xbf	; 191
	.db #0xc0	; 192
	.db #0x7b	; 123
	.db #0xfc	; 252
	.db #0xfb	; 251
	.db #0xfc	; 252
	.db #0xfb	; 251
	.db #0xfc	; 252
	.db #0xff	; 255
	.db #0xfc	; 252
	.db #0xff	; 255
	.db #0xfc	; 252
	.db #0xff	; 255
	.db #0xfc	; 252
	.db #0xff	; 255
	.db #0xfc	; 252
	.db #0x7f	; 127
	.db #0xfc	; 252
	.db #0xb9	; 185
	.db #0x7e	; 126
	.db #0xbe	; 190
	.db #0x79	; 121	'y'
	.db #0xb9	; 185
	.db #0x7f	; 127
	.db #0xb7	; 183
	.db #0x7f	; 127
	.db #0xb7	; 183
	.db #0x7f	; 127
	.db #0xb7	; 183
	.db #0x6f	; 111	'o'
	.db #0xbf	; 191
	.db #0x7f	; 127
	.db #0xbf	; 191
	.db #0x7f	; 127
	.db #0xfb	; 251
	.db #0xfc	; 252
	.db #0xff	; 255
	.db #0xf8	; 248
	.db #0xfb	; 251
	.db #0xfc	; 252
	.db #0xff	; 255
	.db #0xfc	; 252
	.db #0xfd	; 253
	.db #0xfe	; 254
	.db #0xfe	; 254
	.db #0xff	; 255
	.db #0xfe	; 254
	.db #0xff	; 255
	.db #0xff	; 255
	.db #0xff	; 255
	.db #0x85	; 133
	.db #0x7b	; 123
	.db #0x80	; 128
	.db #0x7f	; 127
	.db #0xc8	; 200
	.db #0x37	; 55	'7'
	.db #0xcf	; 207
	.db #0x30	; 48	'0'
	.db #0xcf	; 207
	.db #0x30	; 48	'0'
	.db #0xf1	; 241
	.db #0x0e	; 14
	.db #0x71	; 113	'q'
	.db #0x8e	; 142
	.db #0x78	; 120	'x'
	.db #0x87	; 135
	.db #0xcf	; 207
	.db #0x70	; 112	'p'
	.db #0x9f	; 159
	.db #0x60	; 96
	.db #0x9f	; 159
	.db #0x60	; 96
	.db #0xfe	; 254
	.db #0x01	; 1
	.db #0x99	; 153
	.db #0x67	; 103	'g'
	.db #0xb9	; 185
	.db #0x47	; 71	'G'
	.db #0xf7	; 247
	.db #0x0f	; 15
	.db #0xf7	; 247
	.db #0x0f	; 15
	.db #0x3f	; 63
	.db #0xc7	; 199
	.db #0x3f	; 63
	.db #0xc7	; 199
	.db #0xbf	; 191
	.db #0xc7	; 199
	.db #0xbf	; 191
	.db #0xc7	; 199
	.db #0xbf	; 191
	.db #0xc7	; 199
	.db #0xbb	; 187
	.db #0xc7	; 199
	.db #0xbb	; 187
	.db #0xc7	; 199
	.db #0xbb	; 187
	.db #0xc7	; 199
	.db #0xff	; 255
	.db #0xe0	; 224
	.db #0xff	; 255
	.db #0xe0	; 224
	.db #0xfd	; 253
	.db #0xe2	; 226
	.db #0xfc	; 252
	.db #0xe3	; 227
	.db #0xfc	; 252
	.db #0xe3	; 227
	.db #0xfc	; 252
	.db #0xe3	; 227
	.db #0xfc	; 252
	.db #0xe3	; 227
	.db #0xef	; 239
	.db #0xf1	; 241
	.db #0xc7	; 199
	.db #0x3f	; 63
	.db #0xc7	; 199
	.db #0x3f	; 63
	.db #0xe7	; 231
	.db #0x1f	; 31
	.db #0xe7	; 231
	.db #0x1f	; 31
	.db #0x7b	; 123
	.db #0x87	; 135
	.db #0x38	; 56	'8'
	.db #0xc7	; 199
	.db #0xb8	; 184
	.db #0xc7	; 199
	.db #0xa3	; 163
	.db #0xdc	; 220
	.db #0xeb	; 235
	.db #0xf7	; 247
	.db #0xef	; 239
	.db #0xf3	; 243
	.db #0xe5	; 229
	.db #0xfb	; 251
	.db #0xdd	; 221
	.db #0xe3	; 227
	.db #0xbf	; 191
	.db #0xc1	; 193
	.db #0x7e	; 126
	.db #0x81	; 129
	.db #0xfe	; 254
	.db #0x01	; 1
	.db #0xc7	; 199
	.db #0x38	; 56	'8'
	.db #0xcf	; 207
	.db #0xf0	; 240
	.db #0xe3	; 227
	.db #0xfc	; 252
	.db #0xf3	; 243
	.db #0xfc	; 252
	.db #0xfb	; 251
	.db #0xfc	; 252
	.db #0xfb	; 251
	.db #0xfc	; 252
	.db #0x7b	; 123
	.db #0xfc	; 252
	.db #0x3b	; 59
	.db #0xfc	; 252
	.db #0xa3	; 163
	.db #0x5c	; 92
	.db #0xfb	; 251
	.db #0x3c	; 60
	.db #0xfb	; 251
	.db #0x0c	; 12
	.db #0x83	; 131
	.db #0x7c	; 124
	.db #0xb3	; 179
	.db #0x7c	; 124
	.db #0xba	; 186
	.db #0x7d	; 125
	.db #0xfb	; 251
	.db #0x7c	; 124
	.db #0xfb	; 251
	.db #0x7c	; 124
	.db #0xfa	; 250
	.db #0x7d	; 125
	.db #0xbf	; 191
	.db #0x7f	; 127
	.db #0xff	; 255
	.db #0x3f	; 63
	.db #0xff	; 255
	.db #0x3f	; 63
	.db #0xbf	; 191
	.db #0x7f	; 127
	.db #0xff	; 255
	.db #0x7f	; 127
	.db #0x7f	; 127
	.db #0xff	; 255
	.db #0x7f	; 127
	.db #0xff	; 255
	.db #0x7f	; 127
	.db #0xff	; 255
	.db #0x7c	; 124
	.db #0x83	; 131
	.db #0xfc	; 252
	.db #0x83	; 131
	.db #0xbe	; 190
	.db #0xc1	; 193
	.db #0xff	; 255
	.db #0xc0	; 192
	.db #0xcf	; 207
	.db #0xf0	; 240
	.db #0xcf	; 207
	.db #0xf0	; 240
	.db #0xf7	; 247
	.db #0xf8	; 248
	.db #0xf6	; 246
	.db #0xf9	; 249
	.db #0xf7	; 247
	.db #0x0f	; 15
	.db #0xf7	; 247
	.db #0x0f	; 15
	.db #0xf9	; 249
	.db #0x07	; 7
	.db #0xf9	; 249
	.db #0x07	; 7
	.db #0x9e	; 158
	.db #0x61	; 97	'a'
	.db #0x9e	; 158
	.db #0x61	; 97	'a'
	.db #0x9f	; 159
	.db #0x60	; 96
	.db #0x4f	; 79	'O'
	.db #0xf0	; 240
	.db #0xbd	; 189
	.db #0xc3	; 195
	.db #0xfe	; 254
	.db #0x81	; 129
	.db #0xff	; 255
	.db #0xc0	; 192
	.db #0xef	; 239
	.db #0xf0	; 240
	.db #0xf3	; 243
	.db #0xfc	; 252
	.db #0xf3	; 243
	.db #0xfc	; 252
	.db #0xfd	; 253
	.db #0xfe	; 254
	.db #0xfe	; 254
	.db #0xff	; 255
	.db #0xdf	; 223
	.db #0xe1	; 225
	.db #0x1f	; 31
	.db #0xe1	; 225
	.db #0x3b	; 59
	.db #0xc5	; 197
	.db #0xf1	; 241
	.db #0x0f	; 15
	.db #0xf7	; 247
	.db #0x0f	; 15
	.db #0xf7	; 247
	.db #0x0f	; 15
	.db #0xef	; 239
	.db #0x1f	; 31
	.db #0xff	; 255
	.db #0x1f	; 31
	.db #0xc7	; 199
	.db #0xf8	; 248
	.db #0xc7	; 199
	.db #0xf8	; 248
	.db #0xff	; 255
	.db #0xe0	; 224
	.db #0xfe	; 254
	.db #0xe1	; 225
	.db #0xfd	; 253
	.db #0xe3	; 227
	.db #0xfd	; 253
	.db #0xe3	; 227
	.db #0xff	; 255
	.db #0xe3	; 227
	.db #0xfb	; 251
	.db #0xe7	; 231
	.db #0x87	; 135
	.db #0x78	; 120	'x'
	.db #0x96	; 150
	.db #0x79	; 121	'y'
	.db #0x7c	; 124
	.db #0xfb	; 251
	.db #0xff	; 255
	.db #0xfb	; 251
	.db #0xf3	; 243
	.db #0xff	; 255
	.db #0xf3	; 243
	.db #0xff	; 255
	.db #0xff	; 255
	.db #0xf7	; 247
	.db #0xff	; 255
	.db #0xf7	; 247
	.db #0xf3	; 243
	.db #0x0c	; 12
	.db #0x3b	; 59
	.db #0xc4	; 196
	.db #0x1f	; 31
	.db #0xe0	; 224
	.db #0xcf	; 207
	.db #0xf0	; 240
	.db #0xe7	; 231
	.db #0xf8	; 248
	.db #0xe7	; 231
	.db #0xf8	; 248
	.db #0xff	; 255
	.db #0xe0	; 224
	.db #0xf7	; 247
	.db #0xf8	; 248
	.db #0xfa	; 250
	.db #0x7d	; 125
	.db #0xfe	; 254
	.db #0x79	; 121	'y'
	.db #0xff	; 255
	.db #0x79	; 121	'y'
	.db #0xfb	; 251
	.db #0x7d	; 125
	.db #0xbd	; 189
	.db #0x7f	; 127
	.db #0xbd	; 189
	.db #0x7f	; 127
	.db #0xbf	; 191
	.db #0x7d	; 125
	.db #0xbf	; 191
	.db #0x7d	; 125
	.db #0xff	; 255
	.db #0xff	; 255
	.db #0x7f	; 127
	.db #0xff	; 255
	.db #0xff	; 255
	.db #0xff	; 255
	.db #0xff	; 255
	.db #0xff	; 255
	.db #0xff	; 255
	.db #0xff	; 255
	.db #0xff	; 255
	.db #0xff	; 255
	.db #0xff	; 255
	.db #0xff	; 255
	.db #0xff	; 255
	.db #0xff	; 255
	.db #0xfe	; 254
	.db #0xf9	; 249
	.db #0xfd	; 253
	.db #0xfb	; 251
	.db #0xfb	; 251
	.db #0xff	; 255
	.db #0xfb	; 251
	.db #0xff	; 255
	.db #0xff	; 255
	.db #0xff	; 255
	.db #0xff	; 255
	.db #0xff	; 255
	.db #0xff	; 255
	.db #0xff	; 255
	.db #0xff	; 255
	.db #0xff	; 255
	.db #0xef	; 239
	.db #0xf0	; 240
	.db #0xe9	; 233
	.db #0xf6	; 246
	.db #0xe7	; 231
	.db #0xf8	; 248
	.db #0xc1	; 193
	.db #0xfe	; 254
	.db #0xd7	; 215
	.db #0xf8	; 248
	.db #0xf9	; 249
	.db #0xfe	; 254
	.db #0xfe	; 254
	.db #0xff	; 255
	.db #0xfe	; 254
	.db #0xff	; 255
	.db #0x7f	; 127
	.db #0xff	; 255
	.db #0x7f	; 127
	.db #0xff	; 255
	.db #0xbf	; 191
	.db #0x7f	; 127
	.db #0xff	; 255
	.db #0x3f	; 63
	.db #0xdf	; 223
	.db #0x3f	; 63
	.db #0x5f	; 95
	.db #0xbf	; 191
	.db #0x3f	; 63
	.db #0xff	; 255
	.db #0x3f	; 63
	.db #0xff	; 255
	.db #0x1f	; 31
	.db #0xff	; 255
	.db #0x3f	; 63
	.db #0xff	; 255
	.db #0xff	; 255
	.db #0xff	; 255
	.db #0xff	; 255
	.db #0xff	; 255
	.db #0xff	; 255
	.db #0xff	; 255
	.db #0xff	; 255
	.db #0xff	; 255
	.db #0xff	; 255
	.db #0xff	; 255
	.db #0xff	; 255
	.db #0xff	; 255
	.db #0xc7	; 199
	.db #0xff	; 255
	.db #0xbf	; 191
	.db #0xff	; 255
	.db #0xff	; 255
	.db #0xff	; 255
	.db #0xff	; 255
	.db #0xff	; 255
	.db #0xff	; 255
	.db #0xff	; 255
	.db #0xff	; 255
	.db #0xff	; 255
	.db #0xff	; 255
	.db #0xff	; 255
	.db #0xff	; 255
	.db #0xff	; 255
	.db #0xef	; 239
	.db #0xff	; 255
	.db #0xef	; 239
	.db #0xff	; 255
	.db #0xff	; 255
	.db #0xff	; 255
	.db #0xff	; 255
	.db #0xff	; 255
	.db #0xff	; 255
	.db #0xff	; 255
	.db #0xff	; 255
	.db #0xff	; 255
	.db #0xff	; 255
	.db #0xff	; 255
	.db #0xff	; 255
	.db #0xff	; 255
	.db #0xf9	; 249
	.db #0xfe	; 254
	.db #0xfe	; 254
	.db #0xff	; 255
	.db #0xff	; 255
	.db #0xff	; 255
	.db #0xff	; 255
	.db #0xff	; 255
	.db #0xff	; 255
	.db #0xff	; 255
	.db #0xff	; 255
	.db #0xff	; 255
	.db #0xff	; 255
	.db #0xff	; 255
	.db #0xff	; 255
	.db #0xff	; 255
	.db #0xbc	; 188
	.db #0x7f	; 127
	.db #0xbe	; 190
	.db #0x7f	; 127
	.db #0x0f	; 15
	.db #0xff	; 255
	.db #0xff	; 255
	.db #0xff	; 255
	.db #0xff	; 255
	.db #0xff	; 255
	.db #0xff	; 255
	.db #0xff	; 255
	.db #0xff	; 255
	.db #0xff	; 255
	.db #0xff	; 255
	.db #0xff	; 255
	.db #0xff	; 255
	.db #0xff	; 255
	.db #0xff	; 255
	.db #0xff	; 255
	.db #0xff	; 255
	.db #0x7f	; 127
	.db #0xff	; 255
	.db #0xff	; 255
	.db #0xff	; 255
	.db #0xff	; 255
	.db #0xff	; 255
	.db #0xff	; 255
	.db #0xff	; 255
	.db #0xff	; 255
	.db #0xff	; 255
	.db #0xff	; 255
	.db #0xfe	; 254
	.db #0xff	; 255
	.db #0xfe	; 254
	.db #0xff	; 255
	.db #0xfe	; 254
	.db #0xff	; 255
	.db #0xff	; 255
	.db #0xfe	; 254
	.db #0xf0	; 240
	.db #0xff	; 255
	.db #0xe1	; 225
	.db #0xff	; 255
	.db #0xff	; 255
	.db #0xff	; 255
	.db #0xff	; 255
	.db #0xff	; 255
	.db #0x7f	; 127
	.db #0xff	; 255
	.db #0x7f	; 127
	.db #0xff	; 255
	.db #0xff	; 255
	.db #0x7f	; 127
	.db #0x7f	; 127
	.db #0xff	; 255
	.db #0xff	; 255
	.db #0xff	; 255
	.db #0xff	; 255
	.db #0xff	; 255
	.db #0xff	; 255
	.db #0xff	; 255
	.db #0xff	; 255
	.db #0xff	; 255
	.db #0xff	; 255
	.db #0xff	; 255
	.db #0xff	; 255
	.db #0xff	; 255
	.db #0x03	; 3
	.db #0x03	; 3
	.db #0x39	; 57	'9'
	.db #0x39	; 57	'9'
	.db #0x3c	; 60
	.db #0x3c	; 60
	.db #0x3c	; 60
	.db #0x3c	; 60
	.db #0x3c	; 60
	.db #0x3c	; 60
	.db #0x39	; 57	'9'
	.db #0x39	; 57	'9'
	.db #0xff	; 255
	.db #0xff	; 255
	.db #0xff	; 255
	.db #0xff	; 255
	.db #0xc0	; 192
	.db #0xc0	; 192
	.db #0xde	; 222
	.db #0xde	; 222
	.db #0xdf	; 223
	.db #0xdf	; 223
	.db #0xdf	; 223
	.db #0xdf	; 223
	.db #0xde	; 222
	.db #0xde	; 222
	.db #0xc0	; 192
	.db #0xc0	; 192
	.db #0xff	; 255
	.db #0xff	; 255
	.db #0xff	; 255
	.db #0xff	; 255
	.db #0xe0	; 224
	.db #0xe0	; 224
	.db #0x67	; 103	'g'
	.db #0x67	; 103	'g'
	.db #0x67	; 103	'g'
	.db #0x67	; 103	'g'
	.db #0x67	; 103	'g'
	.db #0x67	; 103	'g'
	.db #0x67	; 103	'g'
	.db #0x67	; 103	'g'
	.db #0xe0	; 224
	.db #0xe0	; 224
	.db #0xff	; 255
	.db #0xff	; 255
	.db #0xff	; 255
	.db #0xff	; 255
	.db #0x1c	; 28
	.db #0x1c	; 28
	.db #0xf9	; 249
	.db #0xf9	; 249
	.db #0xfb	; 251
	.db #0xfb	; 251
	.db #0xf9	; 249
	.db #0xf9	; 249
	.db #0xf8	; 248
	.db #0xf8	; 248
	.db #0x3e	; 62
	.db #0x3e	; 62
	.db #0xff	; 255
	.db #0xff	; 255
	.db #0xff	; 255
	.db #0xff	; 255
	.db #0x1f	; 31
	.db #0x1f	; 31
	.db #0xce	; 206
	.db #0xce	; 206
	.db #0xee	; 238
	.db #0xee	; 238
	.db #0xfe	; 254
	.db #0xfe	; 254
	.db #0xfe	; 254
	.db #0xfe	; 254
	.db #0x1f	; 31
	.db #0x1f	; 31
	.db #0xff	; 255
	.db #0xff	; 255
	.db #0xff	; 255
	.db #0xff	; 255
	.db #0x07	; 7
	.db #0x07	; 7
	.db #0x73	; 115	's'
	.db #0x73	; 115	's'
	.db #0xf3	; 243
	.db #0xf3	; 243
	.db #0xff	; 255
	.db #0xff	; 255
	.db #0x3f	; 63
	.db #0x3f	; 63
	.db #0x87	; 135
	.db #0x87	; 135
	.db #0xff	; 255
	.db #0xff	; 255
	.db #0xff	; 255
	.db #0xff	; 255
	.db #0xe0	; 224
	.db #0xe0	; 224
	.db #0xce	; 206
	.db #0xce	; 206
	.db #0xde	; 222
	.db #0xde	; 222
	.db #0xdf	; 223
	.db #0xdf	; 223
	.db #0xc7	; 199
	.db #0xc7	; 199
	.db #0xf0	; 240
	.db #0xf0	; 240
	.db #0xff	; 255
	.db #0xff	; 255
	.db #0xff	; 255
	.db #0xff	; 255
	.db #0xe0	; 224
	.db #0xe0	; 224
	.db #0x7c	; 124
	.db #0x7c	; 124
	.db #0x7c	; 124
	.db #0x7c	; 124
	.db #0xfc	; 252
	.db #0xfc	; 252
	.db #0xfc	; 252
	.db #0xfc	; 252
	.db #0xfc	; 252
	.db #0xfc	; 252
	.db #0xff	; 255
	.db #0xff	; 255
	.db #0xff	; 255
	.db #0xff	; 255
	.db #0x1f	; 31
	.db #0x1f	; 31
	.db #0xfe	; 254
	.db #0xfe	; 254
	.db #0xfe	; 254
	.db #0xfe	; 254
	.db #0xfc	; 252
	.db #0xfc	; 252
	.db #0xfc	; 252
	.db #0xfc	; 252
	.db #0xfd	; 253
	.db #0xfd	; 253
	.db #0xff	; 255
	.db #0xff	; 255
	.db #0xff	; 255
	.db #0xff	; 255
	.db #0x3e	; 62
	.db #0x3e	; 62
	.db #0x3e	; 62
	.db #0x3e	; 62
	.db #0xbe	; 190
	.db #0xbe	; 190
	.db #0x9e	; 158
	.db #0x9e	; 158
	.db #0xde	; 222
	.db #0xde	; 222
	.db #0xde	; 222
	.db #0xde	; 222
	.db #0xff	; 255
	.db #0xff	; 255
	.db #0xff	; 255
	.db #0xff	; 255
	.db #0x07	; 7
	.db #0x07	; 7
	.db #0xf3	; 243
	.db #0xf3	; 243
	.db #0xfb	; 251
	.db #0xfb	; 251
	.db #0xfb	; 251
	.db #0xfb	; 251
	.db #0xf3	; 243
	.db #0xf3	; 243
	.db #0x07	; 7
	.db #0x07	; 7
	.db #0xff	; 255
	.db #0xff	; 255
	.db #0xff	; 255
	.db #0xff	; 255
	.db #0x00	; 0
	.db #0x00	; 0
	.db #0xe7	; 231
	.db #0xe7	; 231
	.db #0xe7	; 231
	.db #0xe7	; 231
	.db #0xe7	; 231
	.db #0xe7	; 231
	.db #0xe7	; 231
	.db #0xe7	; 231
	.db #0xe7	; 231
	.db #0xe7	; 231
	.db #0x03	; 3
	.db #0x03	; 3
	.db #0x3f	; 63
	.db #0x3f	; 63
	.db #0x3f	; 63
	.db #0x3f	; 63
	.db #0x3f	; 63
	.db #0x3f	; 63
	.db #0x3f	; 63
	.db #0x3f	; 63
	.db #0xff	; 255
	.db #0xff	; 255
	.db #0xff	; 255
	.db #0xff	; 255
	.db #0xff	; 255
	.db #0xff	; 255
	.db #0xd9	; 217
	.db #0xd9	; 217
	.db #0xdc	; 220
	.db #0xdc	; 220
	.db #0xdc	; 220
	.db #0xdc	; 220
	.db #0xde	; 222
	.db #0xde	; 222
	.db #0xdf	; 223
	.db #0xdf	; 223
	.db #0xff	; 255
	.db #0xff	; 255
	.db #0xff	; 255
	.db #0xff	; 255
	.db #0xff	; 255
	.db #0xff	; 255
	.db #0xe7	; 231
	.db #0xe7	; 231
	.db #0xe7	; 231
	.db #0xe7	; 231
	.db #0xe7	; 231
	.db #0xe7	; 231
	.db #0x67	; 103	'g'
	.db #0x67	; 103	'g'
	.db #0x60	; 96
	.db #0x60	; 96
	.db #0xff	; 255
	.db #0xff	; 255
	.db #0xff	; 255
	.db #0xff	; 255
	.db #0xff	; 255
	.db #0xff	; 255
	.db #0xff	; 255
	.db #0xff	; 255
	.db #0xff	; 255
	.db #0xff	; 255
	.db #0xfb	; 251
	.db #0xfb	; 251
	.db #0xf9	; 249
	.db #0xf9	; 249
	.db #0x1c	; 28
	.db #0x1c	; 28
	.db #0xff	; 255
	.db #0xff	; 255
	.db #0xff	; 255
	.db #0xff	; 255
	.db #0xff	; 255
	.db #0xff	; 255
	.db #0xcf	; 207
	.db #0xcf	; 207
	.db #0xe7	; 231
	.db #0xe7	; 231
	.db #0xec	; 236
	.db #0xec	; 236
	.db #0xce	; 206
	.db #0xce	; 206
	.db #0x1f	; 31
	.db #0x1f	; 31
	.db #0xff	; 255
	.db #0xff	; 255
	.db #0xff	; 255
	.db #0xff	; 255
	.db #0xff	; 255
	.db #0xff	; 255
	.db #0xf3	; 243
	.db #0xf3	; 243
	.db #0xfb	; 251
	.db #0xfb	; 251
	.db #0xfb	; 251
	.db #0xfb	; 251
	.db #0x73	; 115	's'
	.db #0x73	; 115	's'
	.db #0x07	; 7
	.db #0x07	; 7
	.db #0xff	; 255
	.db #0xff	; 255
	.db #0xff	; 255
	.db #0xff	; 255
	.db #0xff	; 255
	.db #0xff	; 255
	.db #0xfe	; 254
	.db #0xfe	; 254
	.db #0xff	; 255
	.db #0xff	; 255
	.db #0x9f	; 159
	.db #0x9f	; 159
	.db #0xce	; 206
	.db #0xce	; 206
	.db #0xe0	; 224
	.db #0xe0	; 224
	.db #0xff	; 255
	.db #0xff	; 255
	.db #0xff	; 255
	.db #0xff	; 255
	.db #0xff	; 255
	.db #0xff	; 255
	.db #0x7c	; 124
	.db #0x7c	; 124
	.db #0x7c	; 124
	.db #0x7c	; 124
	.db #0x7c	; 124
	.db #0x7c	; 124
	.db #0x7c	; 124
	.db #0x7c	; 124
	.db #0xfc	; 252
	.db #0xfc	; 252
	.db #0xff	; 255
	.db #0xff	; 255
	.db #0xff	; 255
	.db #0xff	; 255
	.db #0xff	; 255
	.db #0xff	; 255
	.db #0xf9	; 249
	.db #0xf9	; 249
	.db #0xf8	; 248
	.db #0xf8	; 248
	.db #0xfb	; 251
	.db #0xfb	; 251
	.db #0xf3	; 243
	.db #0xf3	; 243
	.db #0xf3	; 243
	.db #0xf3	; 243
	.db #0xff	; 255
	.db #0xff	; 255
	.db #0xff	; 255
	.db #0xff	; 255
	.db #0xff	; 255
	.db #0xff	; 255
	.db #0xce	; 206
	.db #0xce	; 206
	.db #0x0e	; 14
	.db #0x0e	; 14
	.db #0xee	; 238
	.db #0xee	; 238
	.db #0xe6	; 230
	.db #0xe6	; 230
	.db #0xf6	; 246
	.db #0xf6	; 246
	.db #0xff	; 255
	.db #0xff	; 255
	.db #0xff	; 255
	.db #0xff	; 255
	.db #0xff	; 255
	.db #0xff	; 255
	.db #0xcf	; 207
	.db #0xcf	; 207
	.db #0xe7	; 231
	.db #0xe7	; 231
	.db #0xe7	; 231
	.db #0xe7	; 231
	.db #0xf3	; 243
	.db #0xf3	; 243
	.db #0xfb	; 251
	.db #0xfb	; 251
	.db #0xff	; 255
	.db #0xff	; 255
	.db #0xff	; 255
	.db #0xff	; 255
	.db #0xff	; 255
	.db #0xff	; 255
	.db #0xe7	; 231
	.db #0xe7	; 231
	.db #0xe7	; 231
	.db #0xe7	; 231
	.db #0xe7	; 231
	.db #0xe7	; 231
	.db #0xe7	; 231
	.db #0xe7	; 231
	.db #0xe7	; 231
	.db #0xe7	; 231
	.db #0xff	; 255
	.db #0xff	; 255
	.db #0xff	; 255
	.db #0xff	; 255
	.db #0xff	; 255
	.db #0xff	; 255
_GardenMap:
	.db #0x00	; 0
	.db #0x00	; 0
	.db #0x00	; 0
	.db #0x00	; 0
	.db #0x00	; 0
	.db #0x00	; 0
	.db #0x00	; 0
	.db #0x00	; 0
	.db #0x00	; 0
	.db #0x00	; 0
	.db #0x00	; 0
	.db #0x00	; 0
	.db #0x00	; 0
	.db #0x00	; 0
	.db #0x00	; 0
	.db #0x00	; 0
	.db #0x00	; 0
	.db #0x00	; 0
	.db #0x00	; 0
	.db #0x00	; 0
	.db #0x00	; 0
	.db #0x00	; 0
	.db #0x00	; 0
	.db #0x00	; 0
	.db #0x00	; 0
	.db #0x01	; 1
	.db #0x00	; 0
	.db #0x00	; 0
	.db #0x00	; 0
	.db #0x00	; 0
	.db #0x00	; 0
	.db #0x00	; 0
	.db #0x00	; 0
	.db #0x00	; 0
	.db #0x00	; 0
	.db #0x00	; 0
	.db #0x00	; 0
	.db #0x00	; 0
	.db #0x00	; 0
	.db #0x00	; 0
	.db #0x00	; 0
	.db #0x00	; 0
	.db #0x00	; 0
	.db #0x00	; 0
	.db #0x02	; 2
	.db #0x03	; 3
	.db #0x04	; 4
	.db #0x05	; 5
	.db #0x06	; 6
	.db #0x07	; 7
	.db #0x08	; 8
	.db #0x09	; 9
	.db #0x0a	; 10
	.db #0x0b	; 11
	.db #0x0c	; 12
	.db #0x0d	; 13
	.db #0x0e	; 14
	.db #0x00	; 0
	.db #0x00	; 0
	.db #0x00	; 0
	.db #0x00	; 0
	.db #0x00	; 0
	.db #0x00	; 0
	.db #0x00	; 0
	.db #0x0f	; 15
	.db #0x10	; 16
	.db #0x11	; 17
	.db #0x12	; 18
	.db #0x13	; 19
	.db #0x14	; 20
	.db #0x15	; 21
	.db #0x16	; 22
	.db #0x17	; 23
	.db #0x18	; 24
	.db #0x19	; 25
	.db #0x1a	; 26
	.db #0x1b	; 27
	.db #0x00	; 0
	.db #0x00	; 0
	.db #0x00	; 0
	.db #0x00	; 0
	.db #0x00	; 0
	.db #0x00	; 0
	.db #0x1c	; 28
	.db #0x1d	; 29
	.db #0x1e	; 30
	.db #0x1f	; 31
	.db #0x20	; 32
	.db #0x21	; 33
	.db #0x22	; 34
	.db #0x23	; 35
	.db #0x24	; 36
	.db #0x25	; 37
	.db #0x26	; 38
	.db #0x27	; 39
	.db #0x28	; 40
	.db #0x29	; 41
	.db #0x00	; 0
	.db #0x00	; 0
	.db #0x00	; 0
	.db #0x00	; 0
	.db #0x00	; 0
	.db #0x00	; 0
	.db #0x2a	; 42
	.db #0x2b	; 43
	.db #0x2c	; 44
	.db #0x2d	; 45
	.db #0x2e	; 46
	.db #0x2f	; 47
	.db #0x30	; 48	'0'
	.db #0x31	; 49	'1'
	.db #0x32	; 50	'2'
	.db #0x33	; 51	'3'
	.db #0x34	; 52	'4'
	.db #0x35	; 53	'5'
	.db #0x36	; 54	'6'
	.db #0x37	; 55	'7'
	.db #0x00	; 0
	.db #0x00	; 0
	.db #0x00	; 0
	.db #0x00	; 0
	.db #0x00	; 0
	.db #0x00	; 0
	.db #0x00	; 0
	.db #0x00	; 0
	.db #0x38	; 56	'8'
	.db #0x39	; 57	'9'
	.db #0x3a	; 58
	.db #0x3b	; 59
	.db #0x3c	; 60
	.db #0x3d	; 61
	.db #0x3e	; 62
	.db #0x00	; 0
	.db #0x3f	; 63
	.db #0x40	; 64
	.db #0x41	; 65	'A'
	.db #0x42	; 66	'B'
	.db #0x00	; 0
	.db #0x00	; 0
	.db #0x00	; 0
	.db #0x00	; 0
	.db #0x00	; 0
	.db #0x00	; 0
	.db #0x00	; 0
	.db #0x00	; 0
	.db #0x43	; 67	'C'
	.db #0x44	; 68	'D'
	.db #0x45	; 69	'E'
	.db #0x46	; 70	'F'
	.db #0x47	; 71	'G'
	.db #0x48	; 72	'H'
	.db #0x49	; 73	'I'
	.db #0x4a	; 74	'J'
	.db #0x4b	; 75	'K'
	.db #0x4c	; 76	'L'
	.db #0x00	; 0
	.db #0x00	; 0
	.db #0x00	; 0
	.db #0x00	; 0
	.db #0x00	; 0
	.db #0x00	; 0
	.db #0x00	; 0
	.db #0x00	; 0
	.db #0x00	; 0
	.db #0x00	; 0
	.db #0x4d	; 77	'M'
	.db #0x4e	; 78	'N'
	.db #0x4f	; 79	'O'
	.db #0x50	; 80	'P'
	.db #0x51	; 81	'Q'
	.db #0x52	; 82	'R'
	.db #0x53	; 83	'S'
	.db #0x54	; 84	'T'
	.db #0x55	; 85	'U'
	.db #0x56	; 86	'V'
	.db #0x00	; 0
	.db #0x00	; 0
	.db #0x00	; 0
	.db #0x00	; 0
	.db #0x00	; 0
	.db #0x00	; 0
	.db #0x00	; 0
	.db #0x00	; 0
	.db #0x00	; 0
	.db #0x00	; 0
	.db #0x57	; 87	'W'
	.db #0x58	; 88	'X'
	.db #0x59	; 89	'Y'
	.db #0x5a	; 90	'Z'
	.db #0x5b	; 91
	.db #0x5c	; 92
	.db #0x5d	; 93
	.db #0x5e	; 94
	.db #0x5f	; 95
	.db #0x60	; 96
	.db #0x00	; 0
	.db #0x00	; 0
	.db #0x00	; 0
	.db #0x00	; 0
	.db #0x00	; 0
	.db #0x00	; 0
	.db #0x00	; 0
	.db #0x00	; 0
	.db #0x00	; 0
	.db #0x00	; 0
	.db #0x00	; 0
	.db #0x61	; 97	'a'
	.db #0x62	; 98	'b'
	.db #0x63	; 99	'c'
	.db #0x64	; 100	'd'
	.db #0x65	; 101	'e'
	.db #0x66	; 102	'f'
	.db #0x67	; 103	'g'
	.db #0x68	; 104	'h'
	.db #0x69	; 105	'i'
	.db #0x00	; 0
	.db #0x00	; 0
	.db #0x00	; 0
	.db #0x00	; 0
	.db #0x00	; 0
	.db #0x00	; 0
	.db #0x00	; 0
	.db #0x00	; 0
	.db #0x00	; 0
	.db #0x00	; 0
	.db #0x00	; 0
	.db #0x6a	; 106	'j'
	.db #0x6b	; 107	'k'
	.db #0x6c	; 108	'l'
	.db #0x6d	; 109	'm'
	.db #0x6e	; 110	'n'
	.db #0x6f	; 111	'o'
	.db #0x70	; 112	'p'
	.db #0x71	; 113	'q'
	.db #0x72	; 114	'r'
	.db #0x00	; 0
	.db #0x00	; 0
	.db #0x00	; 0
	.db #0x00	; 0
	.db #0x00	; 0
	.db #0x00	; 0
	.db #0x00	; 0
	.db #0x00	; 0
	.db #0x00	; 0
	.db #0x00	; 0
	.db #0x00	; 0
	.db #0x00	; 0
	.db #0x73	; 115	's'
	.db #0x74	; 116	't'
	.db #0x00	; 0
	.db #0x00	; 0
	.db #0x00	; 0
	.db #0x00	; 0
	.db #0x00	; 0
	.db #0x00	; 0
	.db #0x00	; 0
	.db #0x00	; 0
	.db #0x00	; 0
	.db #0x00	; 0
	.db #0x00	; 0
	.db #0x00	; 0
	.db #0x00	; 0
	.db #0x00	; 0
	.db #0x00	; 0
	.db #0x00	; 0
	.db #0x00	; 0
	.db #0x00	; 0
	.db #0x00	; 0
	.db #0x00	; 0
	.db #0x00	; 0
	.db #0x00	; 0
	.db #0x00	; 0
	.db #0x00	; 0
	.db #0x00	; 0
	.db #0x00	; 0
	.db #0x00	; 0
	.db #0x00	; 0
	.db #0x00	; 0
	.db #0x00	; 0
	.db #0x00	; 0
	.db #0x00	; 0
	.db #0x00	; 0
	.db #0x00	; 0
	.db #0x00	; 0
	.db #0x75	; 117	'u'
	.db #0x76	; 118	'v'
	.db #0x77	; 119	'w'
	.db #0x78	; 120	'x'
	.db #0x79	; 121	'y'
	.db #0x7a	; 122	'z'
	.db #0x00	; 0
	.db #0x7b	; 123
	.db #0x7c	; 124
	.db #0x7d	; 125
	.db #0x7e	; 126
	.db #0x7f	; 127
	.db #0x80	; 128
	.db #0x00	; 0
	.db #0x00	; 0
	.db #0x00	; 0
	.db #0x00	; 0
	.db #0x00	; 0
	.db #0x00	; 0
	.db #0x00	; 0
	.db #0x81	; 129
	.db #0x82	; 130
	.db #0x83	; 131
	.db #0x84	; 132
	.db #0x85	; 133
	.db #0x86	; 134
	.db #0x00	; 0
	.db #0x87	; 135
	.db #0x88	; 136
	.db #0x89	; 137
	.db #0x8a	; 138
	.db #0x8b	; 139
	.db #0x8c	; 140
	.db #0x00	; 0
	.db #0x00	; 0
	.db #0x00	; 0
	.db #0x00	; 0
	.db #0x00	; 0
	.db #0x00	; 0
	.db #0x00	; 0
	.db #0x00	; 0
	.db #0x00	; 0
	.db #0x00	; 0
	.db #0x00	; 0
	.db #0x00	; 0
	.db #0x00	; 0
	.db #0x00	; 0
	.db #0x00	; 0
	.db #0x00	; 0
	.db #0x00	; 0
	.db #0x00	; 0
	.db #0x00	; 0
	.db #0x00	; 0
	.db #0x00	; 0
	.db #0x00	; 0
	.db #0x00	; 0
	.db #0x00	; 0
	.db #0x00	; 0
	.db #0x00	; 0
	.db #0x00	; 0
	.db #0x00	; 0
	.db #0x00	; 0
	.db #0x00	; 0
	.db #0x00	; 0
	.db #0x00	; 0
	.db #0x00	; 0
	.db #0x00	; 0
	.db #0x00	; 0
	.db #0x00	; 0
	.db #0x00	; 0
	.db #0x00	; 0
	.db #0x00	; 0
	.db #0x00	; 0
	.db #0x00	; 0
	.db #0x00	; 0
	.db #0x00	; 0
;main.c:62: void SplashScene() {
;	---------------------------------
; Function SplashScene
; ---------------------------------
_SplashScene::
;main.c:64: set_bkg_data(0, 126, RabbitSprites);
	ld	de, #_RabbitSprites
	push	de
	ld	hl, #0x7e00
	push	hl
	call	_set_bkg_data
	add	sp, #4
;main.c:65: set_bkg_tiles(0, 0, 20, 18, RabbitMap);
	ld	de, #_RabbitMap
	push	de
	ld	hl, #0x1214
	push	hl
	xor	a, a
	rrca
	push	af
	call	_set_bkg_tiles
	add	sp, #6
;main.c:67: SHOW_BKG;
	ldh	a, (_LCDC_REG + 0)
	or	a, #0x01
	ldh	(_LCDC_REG + 0), a
;main.c:68: DISPLAY_ON;
	ldh	a, (_LCDC_REG + 0)
	or	a, #0x80
	ldh	(_LCDC_REG + 0), a
;main.c:70: fadein();
	call	_fadein
;main.c:72: delay(1000);
	ld	de, #0x03e8
	call	_delay
;main.c:74: fadeout();
	call	_fadeout
;main.c:76: set_bkg_data(0, 141, GardenSprites);
	ld	de, #_GardenSprites
	push	de
	ld	hl, #0x8d00
	push	hl
	call	_set_bkg_data
	add	sp, #4
;main.c:77: set_bkg_tiles(0, 0, 20, 18, GardenMap);
	ld	de, #_GardenMap
	push	de
	ld	hl, #0x1214
	push	hl
	xor	a, a
	rrca
	push	af
	xor	a, a
	call	_set_bkg_tiles
	add	sp, #6
;main.c:78: fadein();
	call	_fadein
;/opt/gbdk/include/gb/gb.h:743: __asm__("di");
	di
;main.c:80: gbt_play(song_Data, 2, 7);
	ld	a, #0x07
	push	af
	inc	sp
	ld	a, #0x02
	ld	de, #_song_Data
	call	_gbt_play
;main.c:81: gbt_loop(1);
	ld	a, #0x01
	call	_gbt_loop
;main.c:83: set_interrupts(VBL_IFLAG);
	ld	a, #0x01
	push	af
	inc	sp
	call	_set_interrupts
	inc	sp
;/opt/gbdk/include/gb/gb.h:727: __asm__("ei");
	ei
;main.c:86: while (1)
00102$:
;main.c:88: wait_vbl_done();
	call	_wait_vbl_done
;main.c:91: waitpad(J_START);
	ld	a, #0x80
	call	_waitpad
;main.c:92: fadeout();
	call	_fadeout
;main.c:93: MenuScene();
	call	_MenuScene
;main.c:95: gbt_update(); // This will change to ROM bank 1.
	call	_gbt_update
;main.c:98: }
	jr	00102$
;main.c:100: void MenuScene() {
;	---------------------------------
; Function MenuScene
; ---------------------------------
_MenuScene::
;main.c:101: fadein();
	call	_fadein
;main.c:102: printf("MenuScene");
	ld	de, #___str_0
	push	de
	call	_printf
	pop	hl
;main.c:104: }
	ret
___str_0:
	.ascii "MenuScene"
	.db 0x00
;main.c:106: void MapScene() {
;	---------------------------------
; Function MapScene
; ---------------------------------
_MapScene::
;main.c:108: printf("MapScene");
	ld	de, #___str_1
	push	de
	call	_printf
	pop	hl
;main.c:119: while(1) {
00102$:
;main.c:120: checkInput();
	call	_checkInput
;main.c:121: delay(10);
	ld	de, #0x000a
	call	_delay
;main.c:123: }
	jr	00102$
___str_1:
	.ascii "MapScene"
	.db 0x00
;main.c:125: void BattleScene() {
;	---------------------------------
; Function BattleScene
; ---------------------------------
_BattleScene::
;main.c:128: }
	ret
;main.c:130: void GameOverScene() {
;	---------------------------------
; Function GameOverScene
; ---------------------------------
_GameOverScene::
;main.c:133: }
	ret
;main.c:136: void RunGame(UINT8 gameState) {
;	---------------------------------
; Function RunGame
; ---------------------------------
_RunGame::
	ld	c, a
;main.c:138: switch(gameState) {
	ld	a, #0x04
	sub	a, c
	ret	C
	ld	b, #0x00
	ld	hl, #00114$
	add	hl, bc
	add	hl, bc
	add	hl, bc
	jp	(hl)
00114$:
	jp	_SplashScene
	jp	_SplashScene
	jp	_MapScene
	jp	_BattleScene
;main.c:139: case 0: // 0
;main.c:141: SplashScene();
;main.c:142: break;
;main.c:143: case 1: // 0
;main.c:145: SplashScene();
;main.c:146: break;
;main.c:147: case 2: // 1
;main.c:149: MapScene();
;main.c:150: break;
;main.c:151: case 3: // 2
;main.c:153: BattleScene();
;main.c:154: break;
;main.c:155: case 4: // 3
;main.c:157: GameOverScene();
;main.c:159: }
;main.c:160: }
	jp	_GameOverScene
;main.c:162: void StartGame() {
;	---------------------------------
; Function StartGame
; ---------------------------------
_StartGame::
;main.c:164: RunGame(0);
	xor	a, a
;main.c:165: }
	jp	_RunGame
;main.c:167: void main() {
;	---------------------------------
; Function main
; ---------------------------------
_main::
;main.c:168: SPRITES_8x8;
	ldh	a, (_LCDC_REG + 0)
	and	a, #0xfb
	ldh	(_LCDC_REG + 0), a
;main.c:169: fadeout();
	call	_fadeout
;main.c:170: StartGame();
;main.c:171: }
	jp	_StartGame
	.area _CODE
	.area _INITIALIZER
	.area _CABS (ABS)
